


ARM Macro Assembler    Page 1 Exercise 10 Timer Driver Input Timing 


    1 00000000                 TTL              Exercise 10 Timer Driver Input Timing
    2 00000000         ;****************************************************************
    3 00000000         ;Interrupt-based timing measurements accurate to within 0.01 s.
    4 00000000         ;
    5 00000000         ;Name:  Shubhang Mehrotra
    6 00000000         ;Date:  04/08/2021
    7 00000000         ;Class:  CMPE-250
    8 00000000         ;Section:  01 Thursday 2 PM 
    9 00000000         ;---------------------------------------------------------------
   10 00000000         ;Keil Template for KL05
   11 00000000         ;R. W. Melton
   12 00000000         ;September 13, 2020
   13 00000000         ;****************************************************************
   14 00000000         ;Assembler directives
   15 00000000                 THUMB
   17 00000000         ;****************************************************************
   18 00000000         ;Include files
   19 00000000                 GET              MKL05Z4.s   ;Included by start.s
   21 00000000         ;****************************************************************
   22 00000000         ;EQUates
   23 00000000         ;Lab 10 Timer Equates
   24 00000000 00000032 
                       FIVESEC EQU              50
   25 00000000         
   26 00000000         ; Queue management record field offsets
   27 00000000 00000000 
                       IN_PTR  EQU              0
   28 00000000 00000004 
                       OUT_PTR EQU              4
   29 00000000 00000008 
                       BUF_STRT
                               EQU              8
   30 00000000 0000000C 
                       BUF_PAST
                               EQU              12
   31 00000000 00000010 
                       BUF_SIZE
                               EQU              16
   32 00000000 00000011 
                       NUM_ENQD
                               EQU              17
   33 00000000         



ARM Macro Assembler    Page 2 Exercise 10 Timer Driver Input Timing 


   34 00000000         ; Queue structure sizes
   35 00000000 00000004 
                       Q_BUF_SZ
                               EQU              4           ;Queue contents 
   36 00000000 00000012 
                       Q_REC_SZ
                               EQU              18          ;Queue management record
   37 00000000         
   38 00000000 000000FF 
                       PutNumUB_MASK
                               EQU              0xFF
   39 00000000 00000020 
                       C_MASK  EQU              0x20
   40 00000000 00000018 
                       C_SHIFT EQU              24
   41 00000000         
   42 00000000         
   43 00000000         ;from Lab 6
   44 00000000 0000004F 
                       MAX_STRING
                               EQU              79
   45 00000000         
   46 00000000         ;Characters
   47 00000000 0000000D 
                       CR      EQU              0x0D
   48 00000000 0000000A 
                       LF      EQU              0x0A
   49 00000000 00000008 
                       BS      EQU              0x08
   50 00000000 00000000 
                       NULL    EQU              0x00
   51 00000000         
   52 00000000         ;---------------------------------------------------------------
   53 00000000         ;NVIC_ICER
   54 00000000         ;31-00:CLRENA=masks for HW IRQ sources;
   55 00000000         ;             read:   0 = unmasked;   1 = masked
   56 00000000         ;             write:  0 = no effect;  1 = mask
   57 00000000         ;22:PIT IRQ mask
   58 00000000         ;12:UART0 IRQ mask
   59 00000000 00400000 
                       NVIC_ICER_PIT_MASK
                               EQU              PIT_IRQ_MASK



ARM Macro Assembler    Page 3 Exercise 10 Timer Driver Input Timing 


   60 00000000 00001000 
                       NVIC_ICER_UART0_MASK
                               EQU              UART0_IRQ_MASK
   61 00000000         ;---------------------------------------------------------------
   62 00000000         ;NVIC_ICPR
   63 00000000         ;31-00:CLRPEND=pending status for HW IRQ sources;
   64 00000000         ;             read:   0 = not pending;  1 = pending
   65 00000000         ;             write:  0 = no effect;
   66 00000000         ;                     1 = change status to not pending
   67 00000000         ;22:PIT IRQ pending status
   68 00000000         ;12:UART0 IRQ pending status
   69 00000000 00400000 
                       NVIC_ICPR_PIT_MASK
                               EQU              PIT_IRQ_MASK
   70 00000000 00001000 
                       NVIC_ICPR_UART0_MASK
                               EQU              UART0_IRQ_MASK
   71 00000000         ;---------------------------------------------------------------
   72 00000000         ;NVIC_IPR0-NVIC_IPR7
   73 00000000         ;2-bit priority:  00 = highest; 11 = lowest
   74 00000000         ;--PIT--------------------
   75 00000000 00000000 
                       PIT_IRQ_PRIORITY
                               EQU              0
   76 00000000 00C00000 
                       NVIC_IPR_PIT_MASK
                               EQU              (3 << PIT_PRI_POS)
   77 00000000 00000000 
                       NVIC_IPR_PIT_PRI_0
                               EQU              (PIT_IRQ_PRIORITY << PIT_PRI_POS)
   78 00000000         ;--UART0--------------------
   79 00000000 00000003 
                       UART0_IRQ_PRIORITY
                               EQU              3
   80 00000000 000000C0 
                       NVIC_IPR_UART0_MASK
                               EQU              (3 << UART0_PRI_POS)
   81 00000000 000000C0 
                       NVIC_IPR_UART0_PRI_3
                               EQU              (UART0_IRQ_PRIORITY << UART0_PRI_POS)
   82 00000000         ;---------------------------------------------------------------
   83 00000000         ;NVIC_ISER



ARM Macro Assembler    Page 4 Exercise 10 Timer Driver Input Timing 


   84 00000000         ;31-00:SETENA=masks for HW IRQ sources;
   85 00000000         ;             read:   0 = masked;     1 = unmasked
   86 00000000         ;             write:  0 = no effect;  1 = unmask
   87 00000000         ;22:PIT IRQ mask
   88 00000000         ;12:UART0 IRQ mask
   89 00000000 00400000 
                       NVIC_ISER_PIT_MASK
                               EQU              PIT_IRQ_MASK
   90 00000000 00001000 
                       NVIC_ISER_UART0_MASK
                               EQU              UART0_IRQ_MASK
   91 00000000         ;---------------------------------------------------------------
   92 00000000         ;PIT_LDVALn:  PIT load value register n
   93 00000000         ;31-00:TSV=timer start value (period in clock cycles - 1)
   94 00000000         ;Clock ticks for 0.01 s at ~24 MHz count rate
   95 00000000         ;0.01 s * ~24,000,000 Hz = ~240,000
   96 00000000         ;TSV = ~240,000 - 1
   97 00000000         ;Clock ticks for 0.01 s at 23,986,176 Hz count rate
   98 00000000         ;0.01 s * 23,986,176 Hz = 239,862
   99 00000000         ;TSV = 239,862 - 1
  100 00000000 0003A8F5 
                       PIT_LDVAL_10ms
                               EQU              239861
  101 00000000         ;---------------------------------------------------------------
  102 00000000         ;PIT_MCR:  PIT module control register
  103 00000000         ;1-->    0:FRZ=freeze (continue'/stop in debug mode)
  104 00000000         ;0-->    1:MDIS=module disable (PIT section)
  105 00000000         ;               RTI timer not affected
  106 00000000         ;               must be enabled before any other PIT setup
  107 00000000 00000001 
                       PIT_MCR_EN_FRZ
                               EQU              PIT_MCR_FRZ_MASK
  108 00000000         ;---------------------------------------------------------------
  109 00000000         ;PIT_TCTRL:  timer control register
  110 00000000         ;0-->   2:CHN=chain mode (enable)
  111 00000000         ;1-->   1:TIE=timer interrupt enable
  112 00000000         ;1-->   0:TEN=timer enable
  113 00000000 00000003 
                       PIT_TCTRL_CH_IE
                               EQU              (PIT_TCTRL_TEN_MASK :OR: PIT_TCTRL_TIE_MASK)
  114 00000000         ;---------------------------------------------------------------
  115 00000000         ;PORTx_PCRn (Port x pin control register n [for pin n])



ARM Macro Assembler    Page 5 Exercise 10 Timer Driver Input Timing 


  116 00000000         ;___->10-08:Pin mux control (select 0 to 8)
  117 00000000         ;Use provided PORT_PCR_MUX_SELECT_2_MASK
  118 00000000         ;---------------------------------------------------------------
  119 00000000         ;Port B
  121 00000000 01000200 
                       PORT_PCR_SET_PTB2_UART0_RX
                               EQU              (PORT_PCR_ISF_MASK :OR:                                    PORT_PCR_MUX
_SELECT_2_MASK)
  123 00000000 01000200 
                       PORT_PCR_SET_PTB1_UART0_TX
                               EQU              (PORT_PCR_ISF_MASK :OR:                                    PORT_PCR_MUX
_SELECT_2_MASK)
  124 00000000         ;---------------------------------------------------------------
  125 00000000         ;SIM_SCGC4
  126 00000000         ;1->10:UART0 clock gate control (enabled)
  127 00000000         ;Use provided SIM_SCGC4_UART0_MASK
  128 00000000         ;---------------------------------------------------------------
  129 00000000         ;SIM_SCGC5
  130 00000000         ;1->10:Port B clock gate control (enabled)
  131 00000000         ;Use provided SIM_SCGC5_PORTB_MASK
  132 00000000         ;---------------------------------------------------------------
  133 00000000         ;SIM_SOPT2
  134 00000000         ;01=27-26:UART0SRC=UART0 clock source select (MCGFLLCLK)
  135 00000000         ;---------------------------------------------------------------
  137 00000000 04000000 
                       SIM_SOPT2_UART0SRC_MCGFLLCLK
                               EQU              (1 << SIM_SOPT2_UART0SRC_SHIFT)
  138 00000000         ;---------------------------------------------------------------
  139 00000000         ;SIM_SOPT5
  140 00000000         ; 0->   16:UART0 open drain enable (disabled)
  141 00000000         ; 0->   02:UART0 receive data select (UART0_RX)
  142 00000000         ;00->01-00:UART0 transmit data select source (UART0_TX)
  146 00000000 00010005 
                       SIM_SOPT5_UART0_EXTERN_MASK_CLEAR
                               EQU              (SIM_SOPT5_UART0ODE_MASK :OR:                                  SIM_SOPT
5_UART0RXSRC_MASK :OR:                                  SIM_SOPT5_UART0TXSRC_MASK)
  147 00000000         ;---------------------------------------------------------------
  148 00000000         ;UART0_BDH
  149 00000000         ;    0->  7:LIN break detect IE (disabled)
  150 00000000         ;    0->  6:RxD input active edge IE (disabled)
  151 00000000         ;    0->  5:Stop bit number select (1)
  152 00000000         ;00001->4-0:SBR[12:0] (UART0CLK / [9600 * (OSR + 1)]) 



ARM Macro Assembler    Page 6 Exercise 10 Timer Driver Input Timing 


  153 00000000         ;UART0CLK is MCGFLLCLK
  154 00000000         ;MCGFLLCLK is 47972352 Hz ~=~ 48 MHz
  155 00000000         ;SBR ~=~ 48 MHz / (9600 * 16) = 312.5 --> 312 = 0x138
  156 00000000         ;SBR = 47972352 / (9600 * 16) = 312.32 --> 312 = 0x138
  157 00000000 00000001 
                       UART0_BDH_9600
                               EQU              0x01
  158 00000000         ;---------------------------------------------------------------
  159 00000000         ;UART0_BDL
  160 00000000         ;26->7-0:SBR[7:0] (UART0CLK / [9600 * (OSR + 1)])
  161 00000000         ;UART0CLK is MCGFLLCLK
  162 00000000         ;MCGFLLCLK is 47972352 Hz ~=~ 48 MHz
  163 00000000         ;SBR ~=~ 48 MHz / (9600 * 16) = 312.5 --> 312 = 0x138
  164 00000000         ;SBR = 47972352 / (9600 * 16) = 312.32 --> 312 = 0x138
  165 00000000 00000038 
                       UART0_BDL_9600
                               EQU              0x38
  166 00000000         ;---------------------------------------------------------------
  167 00000000         ;UART0_C1
  168 00000000         ;0-->7:LOOPS=loops select (normal)
  169 00000000         ;0-->6:DOZEEN=doze enable (disabled)
  170 00000000         ;0-->5:RSRC=receiver source select (internal--no effect LOOPS=0)
  171 00000000         ;0-->4:M=9- or 8-bit mode select 
  172 00000000         ;        (1 start, 8 data [lsb first], 1 stop)
  173 00000000         ;0-->3:WAKE=receiver wakeup method select (idle)
  174 00000000         ;0-->2:IDLE=idle line type select (idle begins after start bit)
  175 00000000         ;0-->1:PE=parity enable (disabled)
  176 00000000         ;0-->0:PT=parity type (even parity--no effect PE=0)
  177 00000000 00000000 
                       UART0_C1_8N1
                               EQU              0x00
  178 00000000         ;---------------------------------------------------------------
  179 00000000         ;UART0_C2
  180 00000000         ;0-->7:TIE=transmit IE for TDRE (disabled)
  181 00000000         ;0-->6:TCIE=transmission complete IE for TC (disabled)
  182 00000000         ;0-->5:RIE=receiver IE for RDRF (disabled)
  183 00000000         ;0-->4:ILIE=idle line IE for IDLE (disabled)
  184 00000000         ;1-->3:TE=transmitter enable (enabled)
  185 00000000         ;1-->2:RE=receiver enable (enabled)
  186 00000000         ;0-->1:RWU=receiver wakeup control (normal)
  187 00000000         ;0-->0:SBK=send break (disabled, normal)
  188 00000000 0000000C 



ARM Macro Assembler    Page 7 Exercise 10 Timer Driver Input Timing 


                       UART0_C2_T_R
                               EQU              (UART0_C2_TE_MASK :OR: UART0_C2_RE_MASK)
  189 00000000 0000002C 
                       UART0_C2_T_RI
                               EQU              (UART0_C2_RIE_MASK :OR: UART0_C2_T_R)
  190 00000000 000000AC 
                       UART0_C2_TI_RI
                               EQU              (UART0_C2_TIE_MASK :OR: UART0_C2_T_RI)
  191 00000000         ;---------------------------------------------------------------
  192 00000000         ;UART0_C3
  193 00000000         ;0-->7:R8T9=9th data bit for receiver (not used M=0)
  194 00000000         ;           10th data bit for transmitter (not used M10=0)
  195 00000000         ;0-->6:R9T8=9th data bit for transmitter (not used M=0)
  196 00000000         ;           10th data bit for receiver (not used M10=0)
  197 00000000         ;0-->5:TXDIR=UART_TX pin direction in single-wire mode
  198 00000000         ;            (no effect LOOPS=0)
  199 00000000         ;0-->4:TXINV=transmit data inversion (not inverted)
  200 00000000         ;0-->3:ORIE=overrun IE for OR (disabled)
  201 00000000         ;0-->2:NEIE=noise error IE for NF (disabled)
  202 00000000         ;0-->1:FEIE=framing error IE for FE (disabled)
  203 00000000         ;0-->0:PEIE=parity error IE for PF (disabled)
  204 00000000 00000000 
                       UART0_C3_NO_TXINV
                               EQU              0x00
  205 00000000         ;---------------------------------------------------------------
  206 00000000         ;UART0_C4
  207 00000000         ;    0-->  7:MAEN1=match address mode enable 1 (disabled)
  208 00000000         ;    0-->  6:MAEN2=match address mode enable 2 (disabled)
  209 00000000         ;    0-->  5:M10=10-bit mode select (not selected)
  210 00000000         ;01111-->4-0:OSR=over sampling ratio (16)
  211 00000000         ;               = 1 + OSR for 3 <= OSR <= 31
  212 00000000         ;               = 16 for 0 <= OSR <= 2 (invalid values)
  213 00000000 0000000F 
                       UART0_C4_OSR_16
                               EQU              0x0F
  214 00000000 0000000F 
                       UART0_C4_NO_MATCH_OSR_16
                               EQU              UART0_C4_OSR_16
  215 00000000         ;---------------------------------------------------------------
  216 00000000         ;UART0_C5
  217 00000000         ;  0-->  7:TDMAE=transmitter DMA enable (disabled)
  218 00000000         ;  0-->  6:Reserved; read-only; always 0



ARM Macro Assembler    Page 8 Exercise 10 Timer Driver Input Timing 


  219 00000000         ;  0-->  5:RDMAE=receiver full DMA enable (disabled)
  220 00000000         ;000-->4-2:Reserved; read-only; always 0
  221 00000000         ;  0-->  1:BOTHEDGE=both edge sampling (rising edge only)
  222 00000000         ;  0-->  0:RESYNCDIS=resynchronization disable (enabled)
  223 00000000 00000000 
                       UART0_C5_NO_DMA_SSR_SYNC
                               EQU              0x00
  224 00000000         ;---------------------------------------------------------------
  225 00000000         ;UART0_S1
  226 00000000         ;0-->7:TDRE=transmit data register empty flag; read-only
  227 00000000         ;0-->6:TC=transmission complete flag; read-only
  228 00000000         ;0-->5:RDRF=receive data register full flag; read-only
  229 00000000         ;1-->4:IDLE=idle line flag; write 1 to clear (clear)
  230 00000000         ;1-->3:OR=receiver overrun flag; write 1 to clear (clear)
  231 00000000         ;1-->2:NF=noise flag; write 1 to clear (clear)
  232 00000000         ;1-->1:FE=framing error flag; write 1 to clear (clear)
  233 00000000         ;1-->0:PF=parity error flag; write 1 to clear (clear)
  238 00000000 0000001F 
                       UART0_S1_CLEAR_FLAGS
                               EQU              (UART0_S1_IDLE_MASK :OR:                              UART0_S1_OR_MASK 
:OR:                              UART0_S1_NF_MASK :OR:                              UART0_S1_FE_MASK :OR:           
                   UART0_S1_PF_MASK)
  239 00000000         ;---------------------------------------------------------------
  240 00000000         ;UART0_S2
  241 00000000         ;1-->7:LBKDIF=LIN break detect interrupt flag (clear)
  242 00000000         ;             write 1 to clear
  243 00000000         ;1-->6:RXEDGIF=RxD pin active edge interrupt flag (clear)
  244 00000000         ;              write 1 to clear
  245 00000000         ;0-->5:(reserved); read-only; always 0
  246 00000000         ;0-->4:RXINV=receive data inversion (disabled)
  247 00000000         ;0-->3:RWUID=receive wake-up idle detect
  248 00000000         ;0-->2:BRK13=break character generation length (10)
  249 00000000         ;0-->1:LBKDE=LIN break detect enable (disabled)
  250 00000000         ;0-->0:RAF=receiver active flag; read-only
  252 00000000 000000C0 
                       UART0_S2_NO_RXINV_BRK10_NO_LBKDETECT_CLEAR_FLAGS
                               EQU              (UART0_S2_LBKDIF_MASK :OR: UART0_S2_RXEDGIF_MASK)
  253 00000000         ;---------------------------------------------------------------
  254 00000000         
  255 00000000         ;****************************************************************
  256 00000000         ;Program
  257 00000000         ;Linker requires Reset_Handler



ARM Macro Assembler    Page 9 Exercise 10 Timer Driver Input Timing 


  258 00000000                 AREA             MyCode,CODE,READONLY
  259 00000000                 ENTRY
  260 00000000                 EXPORT           Reset_Handler
  261 00000000                 IMPORT           Startup
  262 00000000         Reset_Handler
                               PROC             {}
  263 00000000         main
  264 00000000         ;---------------------------------------------------------------
  265 00000000         ;Mask interrupts
  266 00000000 B672            CPSID            I
  267 00000002         ;KL05 system startup with 48-MHz system clock
  268 00000002 F7FF FFFE       BL               Startup
  269 00000006 F7FF FFFE       BL               Init_UART0_IRQ ;enable interrupts
  270 0000000A F7FF FFFE       BL               Init_PIT_IRQ ;enable clock
  271 0000000E         ;---------------------------------------------------------------
  272 0000000E         ;>>>>> begin main program code <<<<<
  273 0000000E         ;Initalize RunStopwatch and Count to 0
  274 0000000E 483E            LDR              R0, =RunStopWatch
  275 00000010 2100            MOVS             R1, #0
  276 00000012 7001            STRB             R1, [R0, #0]
  277 00000014         
  278 00000014 483D            LDR              R0, =Count
  279 00000016 2100            MOVS             R1, #0
  280 00000018 6001            STR              R1, [R0, #0]
  281 0000001A         
  282 0000001A         ;prompt for name input
  283 0000001A 483D            LDR              R0, =NamePrompt
  284 0000001C 214F            MOVS             R1, #MAX_STRING
  285 0000001E 4A3D            LDR              R2, =StringBuffer
  286 00000020 F7FF FFFE       BL               PutStringSB
  287 00000024 F7FF FFFE       BL               AdvanceCursor
  288 00000028 203E            MOVS             R0, #">"
  289 0000002A F7FF FFFE       BL               PutChar
  290 0000002E         
  291 0000002E         ;Initalize RunStopwatch to 1 and Count to 0
  292 0000002E 4837            LDR              R0, =Count
  293 00000030 2100            MOVS             R1, #0
  294 00000032 6001            STR              R1, [R0, #0]
  295 00000034         
  296 00000034 4834            LDR              R0, =RunStopWatch
  297 00000036 2101            MOVS             R1, #1
  298 00000038 7001            STRB             R1, [R0, #0]



ARM Macro Assembler    Page 10 Exercise 10 Timer Driver Input Timing 


  299 0000003A         
  300 0000003A         ;Accept user input
  301 0000003A 214F            MOVS             R1, #MAX_STRING
  302 0000003C 4836            LDR              R0, =InputString
  303 0000003E F7FF FFFE       BL               GetStringSB
  304 00000042         
  305 00000042         ;Set RunStopWatch to 0
  306 00000042 4831            LDR              R0, =RunStopWatch
  307 00000044 2100            MOVS             R1, #0
  308 00000046 7001            STRB             R1, [R0, #0]
  309 00000048         
  310 00000048         ;prepare for time output, print "<"
  311 00000048 F7FF FFFE       BL               AdvanceCursor
  312 0000004C 203C            MOVS             R0, #"<"
  313 0000004E F7FF FFFE       BL               PutChar
  314 00000052         
  315 00000052         ;Print the value of count with time unit
  316 00000052 482E            LDR              R0, =Count
  317 00000054 6800            LDR              R0, [R0, #0]
  318 00000056 0001            MOVS             R1, R0      ;set value to R1 for PutNumU
  319 00000058 F7FF FFFE       BL               PutNumU
  320 0000005C 482F            LDR              R0, =TimeUnit
  321 0000005E F7FF FFFE       BL               PutStringSB
  322 00000062 F7FF FFFE       BL               AdvanceCursor
  323 00000066         
  324 00000066         ;___________________________
  325 00000066         
  326 00000066         ;prompt for date input
  327 00000066 482E            LDR              R0, =DatePrompt
  328 00000068 214F            MOVS             R1, #MAX_STRING
  329 0000006A 4A2A            LDR              R2, =StringBuffer
  330 0000006C F7FF FFFE       BL               PutStringSB
  331 00000070 F7FF FFFE       BL               AdvanceCursor
  332 00000074 203E            MOVS             R0, #">"
  333 00000076 F7FF FFFE       BL               PutChar
  334 0000007A         
  335 0000007A         ;Initalize RunStopwatch to 1 and Count to 0
  336 0000007A 4824            LDR              R0, =Count
  337 0000007C 2100            MOVS             R1, #0
  338 0000007E 6001            STR              R1, [R0, #0]
  339 00000080         
  340 00000080 4821            LDR              R0, =RunStopWatch



ARM Macro Assembler    Page 11 Exercise 10 Timer Driver Input Timing 


  341 00000082 2101            MOVS             R1, #1
  342 00000084 7001            STRB             R1, [R0, #0]
  343 00000086         
  344 00000086         ;Accept user input
  345 00000086 214F            MOVS             R1, #MAX_STRING
  346 00000088 4823            LDR              R0, =InputString
  347 0000008A F7FF FFFE       BL               GetStringSB
  348 0000008E         
  349 0000008E         ;Set RunStopWatch to 0
  350 0000008E 481E            LDR              R0, =RunStopWatch
  351 00000090 2100            MOVS             R1, #0
  352 00000092 7001            STRB             R1, [R0, #0]
  353 00000094         
  354 00000094         ;prepare for time output, print "<"
  355 00000094 F7FF FFFE       BL               AdvanceCursor
  356 00000098 203C            MOVS             R0, #"<"
  357 0000009A F7FF FFFE       BL               PutChar
  358 0000009E         
  359 0000009E         ;Print the value of count with time unit
  360 0000009E 481B            LDR              R0, =Count
  361 000000A0 6800            LDR              R0, [R0, #0]
  362 000000A2 0001            MOVS             R1, R0      ;set value to R1 for PutNumU
  363 000000A4 F7FF FFFE       BL               PutNumU
  364 000000A8 481C            LDR              R0, =TimeUnit
  365 000000AA F7FF FFFE       BL               PutStringSB
  366 000000AE F7FF FFFE       BL               AdvanceCursor
  367 000000B2         
  368 000000B2         ;________________________________________
  369 000000B2         ;prompt for TA's Last name input
  370 000000B2 481C            LDR              R0, =TAPrompt
  371 000000B4 214F            MOVS             R1, #MAX_STRING
  372 000000B6 4A17            LDR              R2, =StringBuffer
  373 000000B8 F7FF FFFE       BL               PutStringSB
  374 000000BC F7FF FFFE       BL               AdvanceCursor
  375 000000C0 203E            MOVS             R0, #">"
  376 000000C2 F7FF FFFE       BL               PutChar
  377 000000C6         
  378 000000C6         ;Initalize RunStopwatch to 1 and Count to 0
  379 000000C6 4811            LDR              R0, =Count
  380 000000C8 2100            MOVS             R1, #0
  381 000000CA 6001            STR              R1, [R0, #0]
  382 000000CC         



ARM Macro Assembler    Page 12 Exercise 10 Timer Driver Input Timing 


  383 000000CC 480E            LDR              R0, =RunStopWatch
  384 000000CE 2101            MOVS             R1, #1
  385 000000D0 7001            STRB             R1, [R0, #0]
  386 000000D2         
  387 000000D2         ;Accept user input
  388 000000D2 214F            MOVS             R1, #MAX_STRING
  389 000000D4 4810            LDR              R0, =InputString
  390 000000D6 F7FF FFFE       BL               GetStringSB
  391 000000DA         
  392 000000DA         ;Set RunStopWatch to 0
  393 000000DA 480B            LDR              R0, =RunStopWatch
  394 000000DC 2100            MOVS             R1, #0
  395 000000DE 7001            STRB             R1, [R0, #0]
  396 000000E0         
  397 000000E0         ;prepare for time output, print "<"
  398 000000E0 F7FF FFFE       BL               AdvanceCursor
  399 000000E4 203C            MOVS             R0, #"<"
  400 000000E6 F7FF FFFE       BL               PutChar
  401 000000EA         
  402 000000EA         ;Print the value of count with time unit
  403 000000EA 4808            LDR              R0, =Count
  404 000000EC 6800            LDR              R0, [R0, #0]
  405 000000EE 0001            MOVS             R1, R0      ;set value to R1 for PutNumU
  406 000000F0 F7FF FFFE       BL               PutNumU
  407 000000F4 4809            LDR              R0, =TimeUnit
  408 000000F6 F7FF FFFE       BL               PutStringSB
  409 000000FA F7FF FFFE       BL               AdvanceCursor
  410 000000FE         
  411 000000FE         ;Print Goodbye message
  412 000000FE 480A            LDR              R0, =Goodbye
  413 00000100 F7FF FFFE       BL               PutStringSB
  414 00000104         
  415 00000104         ;-------------------------------------------
  416 00000104         ;>>>>>   end main program code <<<<<
  417 00000104         ;Stay here
  418 00000104 E7FE            B                .
  419 00000106                 ENDP
  420 00000106 00 00 00000000 
              00000000 
              00000000 
              00000000 
              00000000 



ARM Macro Assembler    Page 13 Exercise 10 Timer Driver Input Timing 


              00000000 
              00000000 
              00000000 
              00000000 
              00000000 
              00000000 
              00000000 
              00000000 
              00000000 
              00000000 
              00000000 
              00000000 
              00000000 
              00000000 
              00000000 
              00000000 
              00000000 
              00000000 
              00000000 
              00000000 
              00000000 
              00000000         LTORG
  421 00000174         ;>>>>> begin subroutine code <<<<<
  422 00000174         ;-------------------------------------------
  423 00000174         Init_PIT_IRQ
                               PROC             {}
  424 00000174         ;Initialize interrupt every 0.01 s from 
  425 00000174         ;PIT channel 0.
  426 00000174         ;
  427 00000174         ;PIT_LDVAL = 239,999 = 0.01s interval3
  428 00000174         ; Input
  429 00000174         ;  -none-
  430 00000174         ; Output
  431 00000174         ;  -none-
  432 00000174         ;MASK
  433 00000174 B672            CPSID            I
  434 00000176         
  435 00000176 B507            PUSH             {R0-R2, LR}
  436 00000178         
  437 00000178 48C7            LDR              R0, =SIM_SCGC6
  438 0000017A 49C8            LDR              R1, =SIM_SCGC6_PIT_MASK
  439 0000017C         



ARM Macro Assembler    Page 14 Exercise 10 Timer Driver Input Timing 


  440 0000017C 6802            LDR              R2, [R0, #0]
  441 0000017E         
  442 0000017E         ;Set only the PIT bit on SIM_SCGC6
  443 0000017E 430A            ORRS             R2, R2, R1
  444 00000180         
  445 00000180         ;Store set bit back on to the register
  446 00000180 6002            STR              R2, [R0, #0]
  447 00000182         
  448 00000182         ;Disable timer 0 
  449 00000182         ;TODO: 
  450 00000182 48C7            LDR              R0, =PIT_CH0_BASE
  451 00000184 49C7            LDR              R1, =PIT_TCTRL_TEN_MASK
  452 00000186 6882            LDR              R2, [R0, #PIT_TCTRL_OFFSET]
  453 00000188 438A            BICS             R2, R2, R1
  454 0000018A 6082            STR              R2, [R0, #PIT_TCTRL_OFFSET]
  455 0000018C         
  456 0000018C         ;Enable the PIT timer module
  457 0000018C 48C6            LDR              R0, =PIT_BASE
  458 0000018E         
  459 0000018E         ;Enable the FRZ to stop timer in debug mode
  460 0000018E 49C5            LDR              R1, =PIT_MCR_EN_FRZ
  461 00000190         
  462 00000190 6001            STR              R1, [R0, #PIT_MCR_OFFSET]
  463 00000192         
  464 00000192         ;Request interrupts every 0.01 seconds
  465 00000192 48C3            LDR              R0, =PIT_CH0_BASE
  466 00000194 49C5            LDR              R1, =PIT_LDVAL_10ms ;239,999
  467 00000196         
  468 00000196 6001            STR              R1, [R0, #PIT_LDVAL_OFFSET]
  469 00000198         
  470 00000198         ;Enable PIT timer channel 0 for interrupts
  471 00000198 48C1            LDR              R0, =PIT_CH0_BASE
  472 0000019A         
  473 0000019A         ;Interrupt enabled mask to write to the register
  474 0000019A 2103            MOVS             R1, #PIT_TCTRL_CH_IE
  475 0000019C 6081            STR              R1, [R0, #PIT_TCTRL_OFFSET]
  476 0000019E         
  477 0000019E         ;Initalize PIT Interrupts in the NVIC
  478 0000019E         ;Make sure they are set to the highest priority (0)
  479 0000019E         
  480 0000019E         ;Unmask PIT Interrupts
  481 0000019E 48C4            LDR              R0, =NVIC_ISER



ARM Macro Assembler    Page 15 Exercise 10 Timer Driver Input Timing 


  482 000001A0 49C4            LDR              R1, =PIT_IRQ_MASK
  483 000001A2 6001            STR              R1, [R0, #0]
  484 000001A4         
  485 000001A4         ;Set PIT Interrupt Priority
  486 000001A4 48C4            LDR              R0, =PIT_IPR
  487 000001A6 49C5            LDR              R1, =(PIT_IRQ_PRIORITY << PIT_PRI_POS)
  488 000001A8 6001            STR              R1, [R0, #0]
  489 000001AA         
  490 000001AA         ;Unmask
  491 000001AA B662            CPSIE            I
  492 000001AC         
  493 000001AC BD07            POP              {R0-R2, PC}
  494 000001AE         
  495 000001AE                 ENDP
  496 000001AE         ;-------------------------------------------
  497 000001AE         PIT_ISR PROC             {}
  498 000001AE         ;Timer Interrupt Service Routine
  499 000001AE         ;
  500 000001AE         ;On a PIT interrupt, 
  501 000001AE         ;  if RunStopWatch != 0
  502 000001AE         ;     Count++
  503 000001AE         ;
  504 000001AE         ;The ISR then clears the interrupt condition and returns
  505 000001AE         ;-----------------------------------------
  506 000001AE         
  507 000001AE         
  508 000001AE 48C4            LDR              R0, =RunStopWatch
  509 000001B0 7800            LDRB             R0, [R0, #0]
  510 000001B2         
  511 000001B2 2800            CMP              R0, #0
  512 000001B4 D100            BNE              INCR_COUNT
  513 000001B6 E003            B                END_PIT_ISR
  514 000001B8         
  515 000001B8         INCR_COUNT
  516 000001B8         ;Add #1 to count if stopwatch is running
  517 000001B8 48C2            LDR              R0, =Count
  518 000001BA 6801            LDR              R1, [R0, #0]
  519 000001BC 1C49            ADDS             R1, R1, #1
  520 000001BE 6001            STR              R1, [R0, #0]
  521 000001C0         
  522 000001C0         END_PIT_ISR
  523 000001C0         ;Clear interrupt condition



ARM Macro Assembler    Page 16 Exercise 10 Timer Driver Input Timing 


  524 000001C0 48B7            LDR              R0, =PIT_CH0_BASE
  525 000001C2 49B8            LDR              R1, =PIT_TFLG_TIF_MASK
  526 000001C4         
  527 000001C4 60C1            STR              R1, [R0, #PIT_TFLG_OFFSET]
  528 000001C6         
  529 000001C6 4770            BX               LR
  530 000001C8                 ENDP
  531 000001C8         ;-------------------------------------------
  532 000001C8         UART0_ISR
                               PROC             {}
  533 000001C8         ;Interrupt service routine for UART0
  534 000001C8         ; Input 
  535 000001C8         ;  -none- 
  536 000001C8         ; Output
  537 000001C8         ;  -none-
  538 000001C8         ;Mask
  539 000001C8 B672            CPSID            I
  540 000001CA B50F            PUSH             {LR, R0-R3}
  541 000001CC         
  542 000001CC 48BE            LDR              R0, =UART0_BASE
  543 000001CE         
  544 000001CE         ;check if tx interrupt is enabled
  545 000001CE 78C1            LDRB             R1, [R0, #UART0_C2_OFFSET]
  546 000001D0 2280            MOVS             R2, #0x80
  547 000001D2         
  548 000001D2 4011            ANDS             R1, R1, R2
  549 000001D4         
  550 000001D4 2900            CMP              R1, #0
  551 000001D6 D100            BNE              TX_ENABLED
  552 000001D8         
  553 000001D8         ;If no TxInterrupt, check for Rx
  554 000001D8 E00F            B                CHECK_RX_INT
  555 000001DA         
  556 000001DA         TX_ENABLED
  557 000001DA         
  558 000001DA 7901            LDRB             R1,[R0,#UART0_S1_OFFSET]
  559 000001DC 2280            MOVS             R2, #0x80
  560 000001DE         
  561 000001DE 4011            ANDS             R1, R1, R2
  562 000001E0 2900            CMP              R1, #0
  563 000001E2 D00A            BEQ              CHECK_RX_INT
  564 000001E4         



ARM Macro Assembler    Page 17 Exercise 10 Timer Driver Input Timing 


  565 000001E4         ;Dequeue character
  566 000001E4         ;Load input params to initalize queue structure
  567 000001E4 49B9            LDR              R1, =TxQRecord
  568 000001E6 2204            MOVS             R2, #Q_BUF_SZ
  569 000001E8         
  570 000001E8 F7FF FFFE       BL               Dequeue
  571 000001EC         
  572 000001EC         ;Dequeue was unsuccessful
  573 000001EC D202            BCS              DISABLE_TX
  574 000001EE         
  575 000001EE         ;Dequeue was successful
  576 000001EE 49B6            LDR              R1, =UART0_BASE
  577 000001F0         
  578 000001F0         ;Transmit Character Stored in R0
  579 000001F0 71C8            STRB             R0, [R1, #UART0_D_OFFSET]
  580 000001F2         
  581 000001F2 E00E            B                END_ISR
  582 000001F4         
  583 000001F4         DISABLE_TX
  584 000001F4         ;UART0 <- C2_T_RI
  585 000001F4 212C            MOVS             R1,#UART0_C2_T_RI
  586 000001F6 70C1            STRB             R1,[R0,#UART0_C2_OFFSET]
  587 000001F8         
  588 000001F8         ;Pop values and return
  589 000001F8 E00B            B                END_ISR
  590 000001FA         
  591 000001FA         CHECK_RX_INT
  592 000001FA 48B3            LDR              R0, =UART0_BASE
  593 000001FC         
  594 000001FC         ;Check if an RxInterrupt exists
  595 000001FC 7901            LDRB             R1,[R0,#UART0_S1_OFFSET]
  596 000001FE 2210            MOVS             R2, #0x10
  597 00000200         
  598 00000200 4011            ANDS             R1, R1, R2
  599 00000202 2900            CMP              R1, #0
  600 00000204 D005            BEQ              END_ISR
  601 00000206         
  602 00000206         ;Receive character and store in R0
  603 00000206 48B0            LDR              R0, =UART0_BASE
  604 00000208 79C3            LDRB             R3, [R0, #UART0_D_OFFSET]
  605 0000020A         
  606 0000020A         ;Enqueue character with character stored in R0



ARM Macro Assembler    Page 18 Exercise 10 Timer Driver Input Timing 


  607 0000020A         ;Load input params to initalize queue structure
  608 0000020A 49B1            LDR              R1, =RxQRecord
  609 0000020C 0018            MOVS             R0, R3
  610 0000020E         
  611 0000020E F7FF FFFE       BL               Enqueue
  612 00000212         
  613 00000212         ;No need to check return of EnQueue
  614 00000212         ;character will be lost if the queue is full!
  615 00000212         
  616 00000212         END_ISR
  617 00000212         
  618 00000212         ;UnMask
  619 00000212 B662            CPSIE            I
  620 00000214 BD0F            POP              {PC, R0-R3}
  621 00000216                 ENDP
  622 00000216         ;-------------------------------------------
  623 00000216         ;QueueStatus
  624 00000216         ;;QueueStatus: Print the inpointer, outpointer, and
  625 00000216         ;;number of elements that are enqueued in the current queue.
  626 00000216         
  627 00000216         ;;Inputs:
  628 00000216         ; ;R0 = address of queue record structure
  629 00000216         ;;Outputs
  630 00000216         ; ;N/A
  631 00000216         ;;-------------------------------------------
  632 00000216         ; PUSH  {R0-R3, LR}
  633 00000216         ; 
  634 00000216         ; LDR  R1, [R0, #IN_PTR]
  635 00000216         ; LDR  R2, [R0, #OUT_PTR]
  636 00000216         ; LDRB  R3, [R0, #NUM_ENQD]
  637 00000216         ; 
  638 00000216         ; ;Print chars '   In='
  639 00000216         ; LDR  R0, =Spaces
  640 00000216         ; BL   PutStringSB
  641 00000216         ; LDR  R0, =In
  642 00000216         ; BL   PutStringSB
  643 00000216         ; 
  644 00000216         ; ;Print in_ptr address of queue
  645 00000216         ; MOVS  R0, R1
  646 00000216         ; BL   PutNumHex
  647 00000216         ; 
  648 00000216         ; ;Print chars '   Out='



ARM Macro Assembler    Page 19 Exercise 10 Timer Driver Input Timing 


  649 00000216         ; LDR  R0, =Spaces
  650 00000216         ; BL   PutStringSB
  651 00000216         ; LDR  R0, =Out
  652 00000216         ; BL   PutStringSB
  653 00000216         ; 
  654 00000216         ; ;Print out+ptr address of queue
  655 00000216         ; MOVS  R0, R2
  656 00000216         ; BL   PutNumHex
  657 00000216         ; 
  658 00000216         ; ;Print chars '   Num='
  659 00000216         ; LDR  R0, =Spaces
  660 00000216         ; BL   PutStringSB
  661 00000216         ; LDR  R0, =Num
  662 00000216         ; BL   PutStringSB
  663 00000216         ; 
  664 00000216         ; ;Print number of elements currently enqueued
  665 00000216         ; MOVS  R0, R3
  666 00000216         ; BL   PutNumU
  667 00000216         ; 
  668 00000216         ; ;register retention, 
  669 00000216         ; POP  {R0-R3, PC} 
  670 00000216         ;;**************************************
  671 00000216         
  672 00000216         ;DeQueueStatus
  673 00000216         ;;DeQueueStatus: Print the inpointer, outpointer, and
  674 00000216         ;;number of elements that are enqueued in the current queue.
  675 00000216         
  676 00000216         ;;Inputs:
  677 00000216         ; ;R0 = address of queue record structure
  678 00000216         ;;Outputs
  679 00000216         ; ;N/A
  680 00000216         ;;-------------------------------------------
  681 00000216         ; PUSH  {R0-R3, LR}
  682 00000216         ; 
  683 00000216         ; LDR  R1, [R0, #IN_PTR]
  684 00000216         ; LDR  R2, [R0, #OUT_PTR]
  685 00000216         ; LDRB  R3, [R0, #NUM_ENQD]
  686 00000216         ; 
  687 00000216         ; ;Print chars '   In='
  688 00000216         ; LDR  R0, =Spaces_DQ
  689 00000216         ; BL   PutStringSB
  690 00000216         ; LDR  R0, =In



ARM Macro Assembler    Page 20 Exercise 10 Timer Driver Input Timing 


  691 00000216         ; BL   PutStringSB
  692 00000216         ; 
  693 00000216         ; ;Print in_ptr address of queue
  694 00000216         ; MOVS  R0, R1
  695 00000216         ; BL   PutNumHex
  696 00000216         ; 
  697 00000216         ; ;Print chars '   Out='
  698 00000216         ; LDR  R0, =Spaces
  699 00000216         ; BL   PutStringSB
  700 00000216         ; LDR  R0, =Out
  701 00000216         ; BL   PutStringSB
  702 00000216         ; 
  703 00000216         ; ;Print out+ptr address of queue
  704 00000216         ; MOVS  R0, R2
  705 00000216         ; BL   PutNumHex
  706 00000216         ; 
  707 00000216         ; ;Print chars '   Num='
  708 00000216         ; LDR  R0, =Spaces
  709 00000216         ; BL   PutStringSB
  710 00000216         ; LDR  R0, =Num
  711 00000216         ; BL   PutStringSB
  712 00000216         ; 
  713 00000216         ; ;Print number of elements currently enqueued
  714 00000216         ; MOVS  R0, R3
  715 00000216         ; BL   PutNumU
  716 00000216         ; 
  717 00000216         ; ;register retention, 
  718 00000216         ; POP  {R0-R3, PC} 
  719 00000216         ;**************************************
  720 00000216         
  721 00000216         InitQueue
                               PROC             {R0-R14}
  722 00000216         ;InitQueue: Initalize Circular FIFO Queue Structure
  723 00000216         ;Inputs:
  724 00000216         ; R0 - Memory location of queue buffer
  725 00000216         ; R1 - Address to place Queue record structure
  726 00000216         ; R2 - Size of queue structure (character capacity)
  727 00000216         ;Outputs:
  728 00000216         ; none
  729 00000216         ;--------------------------------------------
  730 00000216 B407            PUSH             {R0-R2}
  731 00000218         



ARM Macro Assembler    Page 21 Exercise 10 Timer Driver Input Timing 


  732 00000218         
  733 00000218         ;Store memory address of front of queue
  734 00000218         ;Into IN_PTR position of the buffer
  735 00000218 6008            STR              R0, [R1, #IN_PTR]
  736 0000021A         
  737 0000021A         ;Store same memory address for OUT_PTR
  738 0000021A         ;position in the buffer since queue is empty
  739 0000021A 6048            STR              R0, [R1, #OUT_PTR]
  740 0000021C         
  741 0000021C         ;Store same memory address in BUF_STRT for initalization
  742 0000021C 6088            STR              R0, [R1, #BUF_STRT]
  743 0000021E         
  744 0000021E         ;Store BUF_PAST in last slot of buffer
  745 0000021E 1880            ADDS             R0, R0, R2
  746 00000220 60C8            STR              R0, [R1, #BUF_PAST]
  747 00000222         
  748 00000222         ;Store BUF_SIZE with size in R2
  749 00000222 740A            STRB             R2, [R1, #BUF_SIZE]
  750 00000224         
  751 00000224         ;Initalize NUM_ENQD to zero and 
  752 00000224         ;store in 6th slot of buffer
  753 00000224 2000            MOVS             R0, #0
  754 00000226 7448            STRB             R0, [R1, #NUM_ENQD]
  755 00000228 BC07            POP              {R0-R2}
  756 0000022A 4770            BX               LR
  757 0000022C                 ENDP
  758 0000022C         ;**************************************    
  759 0000022C         
  760 0000022C         Dequeue PROC             {R1-R14}
  761 0000022C         ;Dequeue: Remove an element from the circular FIFO Queue
  762 0000022C         ;Inputs:
  763 0000022C         ; R1 - Address of Queue record structure
  764 0000022C         ;Outputs:
  765 0000022C         ; R0 - Character that has been dequeued
  766 0000022C         ; PSR C flag : Failure - C = 1
  767 0000022C         ;     Success - C = 0 
  768 0000022C         ;--------------------------------------------
  769 0000022C B41E            PUSH             {R1-R4}
  770 0000022E         
  771 0000022E         ;If the number enqueued is 0, 
  772 0000022E         ;Set failure PSR flag
  773 0000022E 7C4B            LDRB             R3, [R1, #NUM_ENQD]



ARM Macro Assembler    Page 22 Exercise 10 Timer Driver Input Timing 


  774 00000230 2B00            CMP              R3, #0
  775 00000232 DD14            BLE              DEQUEUE_FAILURE
  776 00000234         
  777 00000234 684C            LDR              R4, [R1, #OUT_PTR]
  778 00000236         
  779 00000236         ;Remove the item from the queue
  780 00000236         ;And place in R0
  781 00000236 7820            LDRB             R0, [R4, #0]
  782 00000238         
  783 00000238         ;Decrement number of enqueued elements
  784 00000238         ;And store info back in buffer
  785 00000238 7C4B            LDRB             R3, [R1, #NUM_ENQD]
  786 0000023A 1E5B            SUBS             R3, R3, #1
  787 0000023C 744B            STRB             R3, [R1, #NUM_ENQD]
  788 0000023E         
  789 0000023E         
  790 0000023E         ;Increment location of out_pointer
  791 0000023E 1C64            ADDS             R4, R4, #1
  792 00000240         
  793 00000240         
  794 00000240         ;Compare OUT_PTR to BUF_PAST
  795 00000240         ;If out_ptr >= BUF_PAST, wrap the queue around
  796 00000240 68CB            LDR              R3, [R1, #BUF_PAST]
  797 00000242 42A3            CMP              R3, R4
  798 00000244 D001            BEQ              WRAP_BUFFER
  799 00000246         
  800 00000246 604C            STR              R4, [R1, #OUT_PTR]
  801 00000248 E001            B                DEQUEUE_CLEAR_PSR
  802 0000024A         
  803 0000024A         WRAP_BUFFER
  804 0000024A         ;Adjust out_ptr to equal buf_strt
  805 0000024A         ;Thus wrapping around the circular queue
  806 0000024A 688B            LDR              R3, [R1, #BUF_STRT]
  807 0000024C 604B            STR              R3, [R1, #OUT_PTR]
  808 0000024E         
  809 0000024E         DEQUEUE_CLEAR_PSR
  810 0000024E         ;Clear the PSR C flag
  811 0000024E F3EF 8100       MRS              R1, APSR
  812 00000252 2320            MOVS             R3, #C_MASK
  813 00000254 0609            LSLS             R1, R1, #C_SHIFT
  814 00000256 4399            BICS             R1, R1, R3
  815 00000258 F381 8800       MSR              APSR, R1



ARM Macro Assembler    Page 23 Exercise 10 Timer Driver Input Timing 


  816 0000025C         
  817 0000025C         ;Successfully end the operation
  818 0000025C E006            B                END_DEQUEUE
  819 0000025E         
  820 0000025E         DEQUEUE_FAILURE
  821 0000025E         ;Set PSR C flag to 1
  822 0000025E F3EF 8100       MRS              R1, APSR
  823 00000262 2320            MOVS             R3, #C_MASK
  824 00000264 061B            LSLS             R3, R3, #C_SHIFT
  825 00000266 4319            ORRS             R1, R1, R3
  826 00000268 F381 8800       MSR              APSR, R1
  827 0000026C         
  828 0000026C         END_DEQUEUE
  829 0000026C BC1E            POP              {R1-R4}
  830 0000026E 4770            BX               LR
  831 00000270                 ENDP
  832 00000270         ;**************************************   
  833 00000270         
  834 00000270         Enqueue PROC             {R0-R14}
  835 00000270         ;Enqueue: Add an element to the circular FIFO Queue
  836 00000270         ;Inputs:
  837 00000270         ;R0 - Character to enqueue
  838 00000270         ;R1 - Address of the Queue record
  839 00000270         ;Outputs:
  840 00000270         ;PSR C flag (failure if C = 1, C = 0 otherwise.)
  841 00000270         ;--------------------------------------------'
  842 00000270         
  843 00000270 B41C            PUSH             {R2, R3, R4}
  844 00000272         
  845 00000272         ;If num_enqd >= size of the queue
  846 00000272         ;Then set PSR C flag to 1 indicating
  847 00000272         ;the error that an element was not inserted
  848 00000272         ;into a full queue
  849 00000272         
  850 00000272 7C4B            LDRB             R3, [R1, #NUM_ENQD]
  851 00000274 7C0C            LDRB             R4, [R1, #BUF_SIZE]
  852 00000276 42A3            CMP              R3, R4
  853 00000278 DA00            BGE              QUEUE_FULL
  854 0000027A E007            B                BEGIN_ENQUEUE
  855 0000027C         
  856 0000027C         QUEUE_FULL
  857 0000027C         ;Set PSR C flag to 1



ARM Macro Assembler    Page 24 Exercise 10 Timer Driver Input Timing 


  858 0000027C F3EF 8100       MRS              R1, APSR
  859 00000280 2320            MOVS             R3, #C_MASK
  860 00000282 061B            LSLS             R3, R3, #C_SHIFT
  861 00000284 4319            ORRS             R1, R1, R3
  862 00000286 F381 8800       MSR              APSR, R1
  863 0000028A E01B            B                END_ENQUEUE
  864 0000028C         
  865 0000028C         BEGIN_ENQUEUE
  866 0000028C         
  867 0000028C         ;Load mem address of in_ptr
  868 0000028C         ;and then store the value to be enqueued
  869 0000028C         ;into the value at that memory address
  870 0000028C 680B            LDR              R3, [R1, #IN_PTR]
  871 0000028E 7018            STRB             R0, [R3, #0]
  872 00000290         
  873 00000290         ;Increment value of in_ptr by 1, 1 value past
  874 00000290         ;The queue item. Then store back in IN_PTR
  875 00000290         
  876 00000290         ;check for end of buffer first,
  877 00000290         
  878 00000290 1C5B            ADDS             R3, R3, #1
  879 00000292 600B            STR              R3, [R1, #IN_PTR]
  880 00000294         
  881 00000294         ;Increment number of enqueued elements
  882 00000294 7C4B            LDRB             R3, [R1, #NUM_ENQD]
  883 00000296 1C5B            ADDS             R3, R3, #1
  884 00000298 744B            STRB             R3, [R1, #NUM_ENQD]
  885 0000029A         
  886 0000029A         ;If IN_PTR is >= BUF_PAST
  887 0000029A         ;Loop around and adjust inPtr to beginning of
  888 0000029A         ;the queue buffer
  889 0000029A 680B            LDR              R3, [R1, #IN_PTR]
  890 0000029C 68CC            LDR              R4, [R1, #BUF_PAST]
  891 0000029E         
  892 0000029E 42A3            CMP              R3, R4
  893 000002A0 DA07            BGE              WRAP_ENQUEUE
  894 000002A2         
  895 000002A2         ;Clear the PSR C flag confirming successful result
  896 000002A2 F3EF 8200       MRS              R2, APSR
  897 000002A6 2320            MOVS             R3, #C_MASK
  898 000002A8 0612            LSLS             R2, R2, #C_SHIFT
  899 000002AA 439A            BICS             R2, R2, R3



ARM Macro Assembler    Page 25 Exercise 10 Timer Driver Input Timing 


  900 000002AC F382 8800       MSR              APSR, R2
  901 000002B0         
  902 000002B0 E008            B                END_ENQUEUE
  903 000002B2         
  904 000002B2         WRAP_ENQUEUE
  905 000002B2         ;Adjust in_ptr to beginning of queue buffer
  906 000002B2 688A            LDR              R2, [R1, #BUF_STRT]
  907 000002B4 600A            STR              R2, [R1, #IN_PTR]
  908 000002B6         
  909 000002B6         ;Clear the PSR C flag confirming successful result
  910 000002B6 F3EF 8200       MRS              R2, APSR
  911 000002BA 2320            MOVS             R3, #C_MASK
  912 000002BC 0612            LSLS             R2, R2, #C_SHIFT
  913 000002BE 439A            BICS             R2, R2, R3
  914 000002C0 F382 8800       MSR              APSR, R2
  915 000002C4         
  916 000002C4         END_ENQUEUE
  917 000002C4         
  918 000002C4 BC1C            POP              {R2, R3, R4}
  919 000002C6 4770            BX               LR
  920 000002C8                 ENDP
  921 000002C8         ;**************************************      
  922 000002C8         
  923 000002C8         PutNumHex
                               PROC             {R0-R14}
  924 000002C8         ;Print hex representation of a value.
  925 000002C8         ;Inputs:
  926 000002C8         ; R0 - Value to print to the screen
  927 000002C8         ;Outputs:
  928 000002C8         ; none
  929 000002C8         ;--------------------------------------------
  930 000002C8 B51C            PUSH             {R2-R4, LR}
  931 000002CA         
  932 000002CA 2220            MOVS             R2, #32
  933 000002CC         
  934 000002CC         HEX_PRINT_LOOP
  935 000002CC         
  936 000002CC         ;Iterate 8 times for each digit stored in a register
  937 000002CC 2A00            CMP              R2, #0
  938 000002CE DB10            BLT              END_PRINT_HEX
  939 000002D0         
  940 000002D0         ;Shift current nibble to print to



ARM Macro Assembler    Page 26 Exercise 10 Timer Driver Input Timing 


  941 000002D0         ;the rightmost value of register
  942 000002D0 0003            MOVS             R3, R0
  943 000002D2 240F            MOVS             R4, #0x0F
  944 000002D4 40D3            LSRS             R3, R2
  945 000002D6         
  946 000002D6 401C            ANDS             R4, R4, R3
  947 000002D8         
  948 000002D8         ;Convert to appropriate ASCII value
  949 000002D8 2C0A            CMP              R4, #10
  950 000002DA DA01            BGE              PRINT_LETTER
  951 000002DC         
  952 000002DC         ;If 0-9 should be printed, add ASCII '0' val
  953 000002DC 3430            ADDS             R4, #'0'
  954 000002DE E000            B                PRINT_HX
  955 000002E0         
  956 000002E0         PRINT_LETTER
  957 000002E0         
  958 000002E0         ;If A-F should be printed, Add ASCII '55'
  959 000002E0         ;To convert to capital letter value
  960 000002E0 3437            ADDS             R4, R4, #55
  961 000002E2         
  962 000002E2         PRINT_HX
  963 000002E2         ;Print ASCII value to the screen
  964 000002E2         ;Make sure not to destroy vlue in R0!
  965 000002E2 B401            PUSH             {R0}
  966 000002E4 0020            MOVS             R0, R4
  967 000002E6 F7FF FFFE       BL               PutChar
  968 000002EA BC01            POP              {R0}
  969 000002EC         
  970 000002EC         ;Reset value in R3 and increment loop counter
  971 000002EC 2400            MOVS             R4, #0
  972 000002EE 1F12            SUBS             R2, R2, #4
  973 000002F0 E7EC            B                HEX_PRINT_LOOP
  974 000002F2         
  975 000002F2         END_PRINT_HEX
  976 000002F2         
  977 000002F2 BD1C            POP              {R2-R4, PC}
  978 000002F4                 ENDP
  979 000002F4         
  980 000002F4         ;**************************************      
  981 000002F4         
  982 000002F4         PutNumUB



ARM Macro Assembler    Page 27 Exercise 10 Timer Driver Input Timing 


                               PROC             {R0-R14}
  983 000002F4         ;Print binary representation of the 
  984 000002F4         ; unisgned byte value in R0
  985 000002F4         ;Inputs:
  986 000002F4         ; R0 - Value to print to the screen
  987 000002F4         ;Outputs:
  988 000002F4         ; none
  989 000002F4         ;--------------------------------------------  
  990 000002F4 B401            PUSH             {R0}
  991 000002F6         
  992 000002F6 6800            LDR              R0,[R0,#0]
  993 000002F8 21FF            MOVS             R1, #PutNumUB_MASK
  994 000002FA 4008            ANDS             R0, R0, R1
  995 000002FC F7FF FFFE       BL               PutNumU
  996 00000300         
  997 00000300 BC01            POP              {R0}
  998 00000302         
  999 00000302                 ENDP
 1000 00000302         ;**************************************     
 1001 00000302         Init_UART0_IRQ
                               PROC             {R0-R14}
 1002 00000302         ; Initialize UART0 for Interrupt based 
 1003 00000302         ; Serial I/O.
 1004 00000302         ; Select/Configure UART0 Sources
 1005 00000302         ; Enable clocks for UART0 and Port B
 1006 00000302         ; Select port B mux pins to connect to UART0 
 1007 00000302         ; Configure UART0(register initialization)
 1008 00000302         
 1009 00000302         
 1010 00000302 B507            PUSH             {R0-R2, LR} ;Register retention
 1011 00000304         
 1012 00000304         ;Initialize RxQBuffer
 1013 00000304 4972            LDR              R1, =RxQRecord
 1014 00000306 4873            LDR              R0, =RxQBuffer
 1015 00000308 2204            MOVS             R2, #Q_BUF_SZ
 1016 0000030A F7FF FFFE       BL               InitQueue
 1017 0000030E         
 1018 0000030E         ;Initialize TxQBuffer
 1019 0000030E 496F            LDR              R1, =TxQRecord
 1020 00000310 4871            LDR              R0, =TxQBuffer
 1021 00000312 2204            MOVS             R2, #Q_BUF_SZ
 1022 00000314 F7FF FFFE       BL               InitQueue



ARM Macro Assembler    Page 28 Exercise 10 Timer Driver Input Timing 


 1023 00000318         
 1024 00000318 4872            LDR              R0,=SIM_SOPT2 ;connect Sources
 1025 0000031A 4973            LDR              R1,=SIM_SOPT2_UART0SRC_MASK
 1026 0000031C 6802            LDR              R2,[R0,#0]  ;current SIM_SOPT2 value
 1027 0000031E 438A            BICS             R2,R2,R1    ;bits cleared of UART0SRC
 1028 00000320 4972            LDR              R1,=SIM_SOPT2_UART0SRC_MCGFLLCLK
 1029 00000322 430A            ORRS             R2,R2,R1    ;UART0 bits changed
 1030 00000324 6002            STR              R2,[R0,#0]  ;update SIM_SOPT2
 1031 00000326         
 1032 00000326 4872            LDR              R0,=SIM_SOPT5 ;set SIM_SOPT5 for UART0 external
 1033 00000328 4972            LDR              R1,=SIM_SOPT5_UART0_EXTERN_MASK_CLEAR
 1034 0000032A 6802            LDR              R2,[R0,#0]
 1035 0000032C 438A            BICS             R2,R2,R1
 1036 0000032E 6002            STR              R2,[R0,#0]
 1037 00000330         
 1038 00000330 4871            LDR              R0,=SIM_SCGC4 ;enable SIM_SCGC4 as clock for UART0 Module
 1039 00000332 4972            LDR              R1,=SIM_SCGC4_UART0_MASK
 1040 00000334 6802            LDR              R2,[R0,#0]
 1041 00000336 430A            ORRS             R2,R2,R1
 1042 00000338 6002            STR              R2,[R0,#0]
 1043 0000033A         
 1044 0000033A 4871            LDR              R0,=SIM_SCGC5 ;enable clock for Port B module
 1045 0000033C 496F            LDR              R1,= SIM_SCGC5_PORTB_MASK
 1046 0000033E 6802            LDR              R2,[R0,#0]
 1047 00000340 430A            ORRS             R2,R2,R1
 1048 00000342 6002            STR              R2,[R0,#0]
 1049 00000344         
 1050 00000344 486F            LDR              R0,=PORTB_PCR2 ;connect Port B pin 1 to UART0 Rx
 1051 00000346 4970            LDR              R1,=PORT_PCR_SET_PTB2_UART0_RX
 1052 00000348 6001            STR              R1,[R0,#0]
 1053 0000034A         
 1054 0000034A 4870            LDR              R0,=PORTB_PCR1 ;connect Port B pin 2 to UART0 Tx
 1055 0000034C 496E            LDR              R1,=PORT_PCR_SET_PTB1_UART0_TX
 1056 0000034E 6001            STR              R1,[R0,#0]
 1057 00000350         
 1058 00000350         
 1059 00000350 485D            LDR              R0,=UART0_BASE ;load base address
 1060 00000352         
 1061 00000352 210C            MOVS             R1,#UART0_C2_T_R ;Diasble UART0
 1062 00000354 78C2            LDRB             R2,[R0,#UART0_C2_OFFSET]
 1063 00000356 438A            BICS             R2,R2,R1
 1064 00000358 70C2            STRB             R2,[R0,#UART0_C2_OFFSET]



ARM Macro Assembler    Page 29 Exercise 10 Timer Driver Input Timing 


 1065 0000035A         
 1066 0000035A         ;Init NVIC for UART0 Interrupts
 1067 0000035A         
 1068 0000035A         ;Set UART0 IRQ Priority
 1069 0000035A 486D            LDR              R0, =UART0_IPR
 1070 0000035C         
 1071 0000035C         ;TODO: Do I need this?
 1072 0000035C 496D            LDR              R1, =NVIC_IPR_UART0_MASK
 1073 0000035E         
 1074 0000035E 4A6D            LDR              R2, =NVIC_IPR_UART0_PRI_3
 1075 00000360         
 1076 00000360 6803            LDR              R3, [R0, #0]
 1077 00000362         
 1078 00000362         ;TODO: Do I need this?
 1079 00000362 438B            BICS             R3, R3, R1
 1080 00000364         
 1081 00000364 4313            ORRS             R3, R3, R2
 1082 00000366         
 1083 00000366 6003            STR              R3, [R0, #0]
 1084 00000368         
 1085 00000368         ;Clear any pending UART0 Interrupts
 1086 00000368 486B            LDR              R0, =NVIC_ICPR
 1087 0000036A 496C            LDR              R1, =NVIC_ICPR_UART0_MASK
 1088 0000036C 6001            STR              R1, [R0, #0]
 1089 0000036E         
 1090 0000036E         ;Unmask UART0 interrupts
 1091 0000036E 4850            LDR              R0, =NVIC_ISER
 1092 00000370 496A            LDR              R1, =NVIC_ISER_UART0_MASK
 1093 00000372 6001            STR              R1, [R0, #0]
 1094 00000374         
 1095 00000374         ;Init UART0 for 8N1 format at 9600 Baud,
 1096 00000374         ;and enable the rx interrupt
 1097 00000374         
 1098 00000374 4854            LDR              R0, =UART0_BASE ;set UART0 baud rate
 1099 00000376         
 1100 00000376 2101            MOVS             R1,#UART0_BDH_9600
 1101 00000378 7001            STRB             R1,[R0,#UART0_BDH_OFFSET]
 1102 0000037A 2138            MOVS             R1,#UART0_BDL_9600
 1103 0000037C 7041            STRB             R1,[R0,#UART0_BDL_OFFSET]
 1104 0000037E         
 1105 0000037E 2100            MOVS             R1,#UART0_C1_8N1 ;set UART0 8 bit serial stream 
 1106 00000380 7081            STRB             R1,[R0,#UART0_C1_OFFSET]



ARM Macro Assembler    Page 30 Exercise 10 Timer Driver Input Timing 


 1107 00000382 2100            MOVS             R1,#UART0_C3_NO_TXINV
 1108 00000384 7181            STRB             R1,[R0,#UART0_C3_OFFSET]
 1109 00000386 210F            MOVS             R1,#UART0_C4_NO_MATCH_OSR_16
 1110 00000388 7281            STRB             R1,[R0,#UART0_C4_OFFSET]
 1111 0000038A 2100            MOVS             R1,#UART0_C5_NO_DMA_SSR_SYNC
 1112 0000038C 72C1            STRB             R1,[R0,#UART0_C5_OFFSET]
 1113 0000038E 211F            MOVS             R1,#UART0_S1_CLEAR_FLAGS
 1114 00000390 7101            STRB             R1,[R0,#UART0_S1_OFFSET]
 1115 00000392 21C0            MOVS             R1,#UART0_S2_NO_RXINV_BRK10_NO_LBKDETECT_CLEAR_FLAGS
 1116 00000394 7141            STRB             R1,[R0,#UART0_S2_OFFSET]
 1117 00000396         
 1118 00000396 210C            MOVS             R1,#UART0_C2_T_R ;Enable UART0
 1119 00000398 70C1            STRB             R1,[R0,#UART0_C2_OFFSET]
 1120 0000039A         
 1121 0000039A BD07            POP              {R0-R2, PC} ;Register retention 
 1122 0000039C         
 1123 0000039C                 ENDP
 1124 0000039C         
 1125 0000039C         ;************************************************************************    
 1126 0000039C         GetChar PROC             {R1-R14}
 1127 0000039C         ; updated for lab 9
 1128 0000039C         ; Dequeues a character from the recieve queue 
 1129 0000039C         ; and returns it to R0
 1130 0000039C         ; Input
 1131 0000039C         ; -none-
 1132 0000039C         ; Output
 1133 0000039C         ; R0: Character recieved from input
 1134 0000039C         
 1135 0000039C B50E            PUSH             {R1-R3, LR} ;Register retention
 1136 0000039E         
 1137 0000039E 494C            LDR              R1, =RxQRecord
 1138 000003A0         
 1139 000003A0         REPEAT_GET
 1140 000003A0         
 1141 000003A0         ;Mask all interrupts
 1142 000003A0 B672            CPSID            I
 1143 000003A2         
 1144 000003A2         ;Critical code section - dequeue
 1145 000003A2 F7FF FFFE       BL               Dequeue
 1146 000003A6         
 1147 000003A6         ;Re enable interrupts
 1148 000003A6 B662            CPSIE            I



ARM Macro Assembler    Page 31 Exercise 10 Timer Driver Input Timing 


 1149 000003A8         
 1150 000003A8 D2FA            BCS              REPEAT_GET
 1151 000003AA         
 1152 000003AA BD0E            POP              {R1-R3, PC} ;register retention
 1153 000003AC         
 1154 000003AC                 ENDP
 1155 000003AC         
 1156 000003AC         ;************************************************************************
 1157 000003AC         PutChar PROC             {R0-R14}
 1158 000003AC         ; updated for lab 9
 1159 000003AC         ; Enqueues the character from R0 to transmit queue
 1160 000003AC         ; Input
 1161 000003AC         ; R0: Character to print to screen
 1162 000003AC         ; Output
 1163 000003AC         ; -none-
 1164 000003AC         
 1165 000003AC B50F            PUSH             {R0-R3, LR} ;register retention 
 1166 000003AE         
 1167 000003AE         REPEAT_PUT
 1168 000003AE         
 1169 000003AE         ;Load input params to initalize queue structure
 1170 000003AE 4947            LDR              R1, =TxQRecord
 1171 000003B0         
 1172 000003B0         ;Mask all other interrupts
 1173 000003B0 B672            CPSID            I
 1174 000003B2         
 1175 000003B2         ;Critical section -> enqueue character
 1176 000003B2         ;Enqueue character that's already in R0
 1177 000003B2 F7FF FFFE       BL               Enqueue
 1178 000003B6         
 1179 000003B6         ;Enable interrupts
 1180 000003B6 B662            CPSIE            I
 1181 000003B8         
 1182 000003B8 D2F9            BCS              REPEAT_PUT
 1183 000003BA         
 1184 000003BA         ;Enable UART0 Transmitter, reciever, and rx interrupt
 1185 000003BA 4843            LDR              R0, =UART0_BASE
 1186 000003BC 21AC            MOVS             R1,#UART0_C2_TI_RI
 1187 000003BE 70C1            STRB             R1,[R0,#UART0_C2_OFFSET]
 1188 000003C0         
 1189 000003C0         
 1190 000003C0 BD0F            POP              {R0-R3, PC} ;register retention



ARM Macro Assembler    Page 32 Exercise 10 Timer Driver Input Timing 


 1191 000003C2         
 1192 000003C2                 ENDP
 1193 000003C2         
 1194 000003C2         ;************************************************************************
 1195 000003C2         GetStringSB
                               PROC             {R1-R14}
 1196 000003C2         ;Prevents overrun of the buffer capacity and adds Null Termination upon 
 1197 000003C2         ; pressing "Enter" key.
 1198 000003C2         ;R0 = memory location to store string
 1199 000003C2         ;R1 = Buffer capacity
 1200 000003C2         
 1201 000003C2 B50F            PUSH             {R0, R1, R2, R3, LR}
 1202 000003C4 2200            MOVS             R2, #0      ;Initalize string offset to zero
 1203 000003C6 0003            MOVS             R3, R0      ;Save the character input   
 1204 000003C8         INPUT
 1205 000003C8         
 1206 000003C8 F7FF FFFE       BL               GetChar     ;use GetChar to get the next character
 1207 000003CC         ;in the string
 1208 000003CC         
 1209 000003CC 280D            CMP              R0, #CR     ;check for carrige return
 1210 000003CE D00D            BEQ              END_GetStringSB
 1211 000003D0         
 1212 000003D0 2901            CMP              R1, #1      ;check for end of string
 1213 000003D2 D0F9            BEQ              INPUT
 1214 000003D4         
 1215 000003D4 F7FF FFFE       BL               PutChar     ;use PutChar to echo to terminal
 1216 000003D8         
 1217 000003D8 5498            STRB             R0, [R3, R2] ;String[i] = input char
 1218 000003DA         
 1219 000003DA 1E49            SUBS             R1, R1, #1  ;Decrement number of characters left to read
 1220 000003DC         
 1221 000003DC 2808            CMP              R0, #BS     ;Check if backspace is typed
 1222 000003DE D001            BEQ              BS_Input
 1223 000003E0         
 1224 000003E0 1C52            ADDS             R2, R2, #1  ;Add offset index for string   
 1225 000003E2         
 1226 000003E2 E7F1            B                INPUT
 1227 000003E4         
 1228 000003E4         BS_Input
 1229 000003E4 2A00            CMP              R2, #0
 1230 000003E6 D0EF            BEQ              INPUT
 1231 000003E8 1E52            SUBS             R2, R2, #1  ;Decrease the offset



ARM Macro Assembler    Page 33 Exercise 10 Timer Driver Input Timing 


 1232 000003EA E7ED            B                INPUT
 1233 000003EC         
 1234 000003EC         END_GetStringSB
 1235 000003EC         
 1236 000003EC 2000            MOVS             R0, #0      ;null termination
 1237 000003EE 5498            STRB             R0, [R3, R2]
 1238 000003F0         
 1239 000003F0 BD0F            POP              {R0, R1, R2, R3, PC} ;nested subroutine
 1240 000003F2         
 1241 000003F2                 ENDP
 1242 000003F2         ;************************************************************************
 1243 000003F2         
 1244 000003F2         PutStringSB
                               PROC             {R0-R14}
 1245 000003F2         ;Prevents overrun of the buffer capacity, displays a null terminated string
 1246 000003F2         ; to the terminal screen
 1247 000003F2         ;R0 = memory location of string to print
 1248 000003F2         ;R1 = Buffer capacity 
 1249 000003F2         ;R2 = Address of String Buffer
 1250 000003F2         
 1251 000003F2 B507            PUSH             {R0-R2, LR} ;register retention for nested subroutine
 1252 000003F4         
 1253 000003F4 2900            CMP              R1, #0      ;If all characters have been processed
 1254 000003F6 D009            BEQ              END_PutStringSB ;End subroutine execution
 1255 000003F8 1809            ADDS             R1,R1,R0
 1256 000003FA 0002            MOVS             R2, R0      ;save R0 to R2 
 1257 000003FC         READ_CHAR
 1258 000003FC 7810            LDRB             R0,[R2,#0]
 1259 000003FE 2800            CMP              R0,#NULL
 1260 00000400 D004            BEQ              END_PutStringSB
 1261 00000402         
 1262 00000402 F7FF FFFE       BL               PutChar     ;Echo character to the terminal
 1263 00000406         
 1264 00000406 1C52            ADDS             R2, R2, #1  ;point to next value
 1265 00000408         
 1266 00000408 428A            CMP              R2,R1
 1267 0000040A D1F7            BNE              READ_CHAR
 1268 0000040C         
 1269 0000040C         END_PutStringSB
 1270 0000040C BD07            POP              {R0-R2, PC} ;nested subroutine
 1271 0000040E                 ENDP
 1272 0000040E         



ARM Macro Assembler    Page 34 Exercise 10 Timer Driver Input Timing 


 1273 0000040E         ;************************************************************************ 
 1274 0000040E         
 1275 0000040E         PutNumU PROC             {R0-R14}
 1276 0000040E         ;Display text decimal representation of unsigned word values. 
 1277 0000040E         ;Continuously Divide R0 value by 10
 1278 0000040E         ;and print the remainder
 1279 0000040E         
 1280 0000040E B507            PUSH             {R0, R1, R2, LR} ;register retention for nested subroutine
 1281 00000410         
 1282 00000410 2200            MOVS             R2, #0      ;Initalize Array offset to Zero
 1283 00000412         
 1284 00000412         DIV10
 1285 00000412         
 1286 00000412 280A            CMP              R0, #10     ;check if number is smaller than 10
 1287 00000414 DB09            BLT              END_PutNumU
 1288 00000416         
 1289 00000416         ;Move dividend to R1, set divisor to 10
 1290 00000416 0001            MOVS             R1, R0
 1291 00000418 200A            MOVS             R0, #10
 1292 0000041A         
 1293 0000041A         ;R1 / R0 = R0 Remainder R1
 1294 0000041A F7FF FFFE       BL               DIVU
 1295 0000041E         
 1296 0000041E         ;Print remainder stored in R1
 1297 0000041E B401            PUSH             {R0}
 1298 00000420 482E            LDR              R0, =StringReversal
 1299 00000422         
 1300 00000422 5481            STRB             R1, [R0, R2]
 1301 00000424 1C52            ADDS             R2, R2, #1
 1302 00000426         
 1303 00000426 BC01            POP              {R0}
 1304 00000428         
 1305 00000428         ;repeat until num is no longer divisible by 10
 1306 00000428 E7F3            B                DIV10
 1307 0000042A         
 1308 0000042A         END_PutNumU
 1309 0000042A         
 1310 0000042A 3030            ADDS             R0, R0, #'0' ;Convert to ASCII Value
 1311 0000042C F7FF FFFE       BL               PutChar
 1312 00000430         
 1313 00000430 1E52            SUBS             R2, R2, #1  ;decrement string array
 1314 00000432         



ARM Macro Assembler    Page 35 Exercise 10 Timer Driver Input Timing 


 1315 00000432         PRINT_CHAR
 1316 00000432         
 1317 00000432 482A            LDR              R0, =StringReversal ;Iterate over array and print
 1318 00000434         
 1319 00000434 2A00            CMP              R2, #0
 1320 00000436 DB06            BLT              END_PUTNUM
 1321 00000438         
 1322 00000438 5C81            LDRB             R1, [R0, R2]
 1323 0000043A 0008            MOVS             R0, R1
 1324 0000043C         
 1325 0000043C 3030            ADDS             R0, R0, #'0' ;Convert to ASCII Character and Print
 1326 0000043E F7FF FFFE       BL               PutChar
 1327 00000442         
 1328 00000442 1E52            SUBS             R2, R2, #1
 1329 00000444         
 1330 00000444 E7F5            B                PRINT_CHAR
 1331 00000446         
 1332 00000446         END_PUTNUM
 1333 00000446 BD07            POP              {R0, R1, R2, PC} ;restore previous values and get back to subroutine.
 1334 00000448                 ENDP
 1335 00000448         ;****************************************************************
 1336 00000448         
 1337 00000448         DIVU    PROC             {R2-R14}
 1338 00000448         ;****************************************************************
 1339 00000448         ; Performs the division operation upon R1 by dividing it from R0
 1340 00000448         ; and returning the Quotient and Remainder in R0 and R1 
 1341 00000448         ; respectively. If Division by 0 is top be performed, R0 and R1 
 1342 00000448         ; do not change their values, instead C bit is set.
 1343 00000448         ;
 1344 00000448         ; R0 rem R1 = R1 / R0 
 1345 00000448         ;****************************************************************
 1346 00000448 B40C            PUSH             {R2-R3}     ;Temporary Registers  
 1347 0000044A 2800            CMP              R0, #0      ;Check for division by 0
 1348 0000044C D014            BEQ              DIV_BY_0
 1349 0000044E 2900            CMP              R1, #0      ;Check for division of 0   
 1350 00000450 D00F            BEQ              DIV_OF_0
 1351 00000452         
 1352 00000452 0002            MOVS             R2, R0      ;Temporarily storing the dividend
 1353 00000454 2000            MOVS             R0, #0      ;Initializing the quotient
 1354 00000456         
 1355 00000456 4291    While   CMP              R1,R2       ;check for Dividend >= Divisor
 1356 00000458 D302            BLO              DIV_END



ARM Macro Assembler    Page 36 Exercise 10 Timer Driver Input Timing 


 1357 0000045A 1A89            SUBS             R1,R1,R2    ;Dividend -= Divisor
 1358 0000045C 1C40            ADDS             R0,R0,#1    ;Quotient++
 1359 0000045E E7FA            B                While
 1360 00000460         
 1361 00000460 F3EF 8200 
                       DIV_END MRS              R2, APSR    ;Clear flags.
 1362 00000464 2320            MOVS             R3, #C_MASK ;Create Mask
 1363 00000466 061B            LSLS             R3,R3,#C_SHIFT ;Shift to MSB
 1364 00000468 439A            BICS             R2,R3       ;
 1365 0000046A F382 8800       MSR              APSR, R2
 1366 0000046E         
 1367 0000046E BC0C    DIV_DONE
                               POP              {R2-R3}     ;Store Temporary Registers.
 1368 00000470 4770            BX               LR
 1369 00000472         
 1370 00000472 2000    DIV_OF_0
                               MOVS             R0, #0      ;Set Quotient = 0
 1371 00000474 2100            MOVS             R1, #0      ;Set Remainder = 0
 1372 00000476 E7F3            B                DIV_END
 1373 00000478         
 1374 00000478 F3EF 8200 
                       DIV_BY_0
                               MRS              R2, APSR    ;Clear all flags
 1375 0000047C 2320            MOVS             R3, #C_MASK ;Mask
 1376 0000047E 061B            LSLS             R3,R3,#C_SHIFT
 1377 00000480 431A            ORRS             R2,R3
 1378 00000482 F382 8800       MSR              APSR,R2     ;Set C Flag
 1379 00000486 E7F2            B                DIV_DONE
 1380 00000488                 ENDP
 1381 00000488         ;****************************************************************
 1382 00000488         
 1383 00000488         AdvanceCursor
                               PROC             {R0-R14}
 1384 00000488         ;Echo the character with a carriage return, line feed and move the 
 1385 00000488         ;cursor to the next line.
 1386 00000488 B501            PUSH             {R0,LR}     ;Register retention, and nested subroutine
 1387 0000048A         ;BL       PutChar               ;Echo character
 1388 0000048A         
 1389 0000048A 200D            MOVS             R0,#CR
 1390 0000048C F7FF FFFE       BL               PutChar
 1391 00000490 200A            MOVS             R0,#LF
 1392 00000492 F7FF FFFE       BL               PutChar



ARM Macro Assembler    Page 37 Exercise 10 Timer Driver Input Timing 


 1393 00000496         
 1394 00000496 BD01            POP              {R0,PC}     ;Register retention, and exiting subroutine
 1395 00000498                 ENDP
 1396 00000498         
 1397 00000498         ;>>>>>   end subroutine code <<<<<
 1398 00000498                 ALIGN
 1399 00000498         ;****************************************************************
 1400 00000498         ;Vector Table Mapped to Address 0 at Reset
 1401 00000498         ;Linker requires __Vectors to be exported
 1402 00000498 4004803C 
              00800000 
              40037100 
              00000001 
              40037000 
              0003A8F5 
              E000E100 
              00400000 
              E000E414 
              00000000 
              00000000 
              00000000 
              4006A000 
              00000000 
              00000000 
              00000000 
              00000000 
              00000000 
              00000000 
              40048004 
              0C000000 
              04000000 
              40048010 
              00010005 
              40048034 
              00000400 
              40048038 
              4004A008 
              01000200 
              4004A004 
              E000E40C 
              000000C0 
              E000E280 



ARM Macro Assembler    Page 38 Exercise 10 Timer Driver Input Timing 


              00001000 
              00000000 
              00000000 
              00000000 
              00000000         AREA             RESET, DATA, READONLY
 1403 00000000                 EXPORT           __Vectors
 1404 00000000                 EXPORT           __Vectors_End
 1405 00000000                 EXPORT           __Vectors_Size
 1406 00000000                 IMPORT           __initial_sp
 1407 00000000                 IMPORT           Dummy_Handler
 1408 00000000                 IMPORT           HardFault_Handler
 1409 00000000         __Vectors
 1410 00000000         ;ARM core vectors
 1411 00000000 00000000        DCD              __initial_sp ;00:end of stack
 1412 00000004 00000000        DCD              Reset_Handler ;01:reset vector
 1413 00000008 00000000        DCD              Dummy_Handler ;02:NMI
 1414 0000000C 00000000        DCD              HardFault_Handler ;03:hard fault
 1415 00000010 00000000        DCD              Dummy_Handler ;04:(reserved)
 1416 00000014 00000000        DCD              Dummy_Handler ;05:(reserved)
 1417 00000018 00000000        DCD              Dummy_Handler ;06:(reserved)
 1418 0000001C 00000000        DCD              Dummy_Handler ;07:(reserved)
 1419 00000020 00000000        DCD              Dummy_Handler ;08:(reserved)
 1420 00000024 00000000        DCD              Dummy_Handler ;09:(reserved)
 1421 00000028 00000000        DCD              Dummy_Handler ;10:(reserved)
 1422 0000002C 00000000        DCD              Dummy_Handler ;11:SVCall (supervisor call)
 1423 00000030 00000000        DCD              Dummy_Handler ;12:(reserved)
 1424 00000034 00000000        DCD              Dummy_Handler ;13:(reserved)
 1425 00000038 00000000        DCD              Dummy_Handler ;14:PendSV (PendableSrvReq)
 1426 0000003C         ;   pendable request 
 1427 0000003C         ;   for system service)
 1428 0000003C 00000000        DCD              Dummy_Handler ;15:SysTick (system tick timer)
 1429 00000040 00000000        DCD              Dummy_Handler ;16:DMA channel 0 transfer 
 1430 00000044         ;   complete/error
 1431 00000044 00000000        DCD              Dummy_Handler ;17:DMA channel 1 transfer
 1432 00000048         ;   complete/error
 1433 00000048 00000000        DCD              Dummy_Handler ;18:DMA channel 2 transfer
 1434 0000004C         ;   complete/error
 1435 0000004C 00000000        DCD              Dummy_Handler ;19:DMA channel 3 transfer
 1436 00000050         ;   complete/error
 1437 00000050 00000000        DCD              Dummy_Handler ;20:(reserved)
 1438 00000054 00000000        DCD              Dummy_Handler ;21:FTFA command complete/
 1439 00000058         ;   read collision



ARM Macro Assembler    Page 39 Exercise 10 Timer Driver Input Timing 


 1440 00000058 00000000        DCD              Dummy_Handler ;22:low-voltage detect;
 1441 0000005C         ;   low-voltage warning
 1442 0000005C 00000000        DCD              Dummy_Handler ;23:low leakage wakeup
 1443 00000060 00000000        DCD              Dummy_Handler ;24:I2C0
 1444 00000064 00000000        DCD              Dummy_Handler ;25:(reserved)
 1445 00000068 00000000        DCD              Dummy_Handler ;26:SPI0
 1446 0000006C 00000000        DCD              Dummy_Handler ;27:(reserved)
 1447 00000070 00000000        DCD              UART0_ISR   ;28:UART0 (status; error)
 1448 00000074 00000000        DCD              Dummy_Handler ;29:(reserved)
 1449 00000078 00000000        DCD              Dummy_Handler ;30:(reserved)
 1450 0000007C 00000000        DCD              Dummy_Handler ;31:ADC0
 1451 00000080 00000000        DCD              Dummy_Handler ;32:CMP0
 1452 00000084 00000000        DCD              Dummy_Handler ;33:TPM0
 1453 00000088 00000000        DCD              Dummy_Handler ;34:TPM1
 1454 0000008C 00000000        DCD              Dummy_Handler ;35:(reserved)
 1455 00000090 00000000        DCD              Dummy_Handler ;36:RTC (alarm)
 1456 00000094 00000000        DCD              Dummy_Handler ;37:RTC (seconds)
 1457 00000098 00000000        DCD              PIT_ISR     ;38:PIT
 1458 0000009C 00000000        DCD              Dummy_Handler ;39:(reserved)
 1459 000000A0 00000000        DCD              Dummy_Handler ;40:(reserved)
 1460 000000A4 00000000        DCD              Dummy_Handler ;41:DAC0
 1461 000000A8 00000000        DCD              Dummy_Handler ;42:TSI0
 1462 000000AC 00000000        DCD              Dummy_Handler ;43:MCG
 1463 000000B0 00000000        DCD              Dummy_Handler ;44:LPTMR0
 1464 000000B4 00000000        DCD              Dummy_Handler ;45:(reserved)
 1465 000000B8 00000000        DCD              Dummy_Handler ;46:PORTA
 1466 000000BC 00000000        DCD              Dummy_Handler ;47:PORTB
 1467 000000C0         __Vectors_End
 1468 000000C0 000000C0 
                       __Vectors_Size
                               EQU              __Vectors_End - __Vectors
 1469 000000C0                 ALIGN
 1470 000000C0         ;****************************************************************
 1471 000000C0         ;Constants
 1472 000000C0                 AREA             MyConst,DATA,READONLY
 1473 00000000         ;>>>>> begin constants here <<<<<
 1474 00000000         
 1475 00000000 45 6E 74 
              65 72 20 
              79 6F 75 
              72 20 6E 
              61 6D 65 



ARM Macro Assembler    Page 40 Exercise 10 Timer Driver Input Timing 


              2E 00    NamePrompt
                               DCB              "Enter your name.", NULL
 1476 00000011 00 00 00        ALIGN
 1477 00000014 45 6E 74 
              65 72 20 
              74 68 65 
              20 64 61 
              74 65 2E 
              00       DatePrompt
                               DCB              "Enter the date.", NULL
 1478 00000024                 ALIGN
 1479 00000024 45 6E 74 
              65 72 20 
              74 68 65 
              20 6C 61 
              73 74 20 
              6E 61 6D 
              65 20 6F 
              66 20 61 
              20 32 35 
              30 20 6C 
              61 62 20 
              54 41 2E 
              00       TAPrompt
                               DCB              "Enter the last name of a 250 lab TA.", NULL
 1480 00000049 00 00 00        ALIGN
 1481 0000004C 54 68 61 
              6E 6B 20 
              79 6F 75 
              2E 20 47 
              6F 6F 64 
              62 79 65 
              21 00    Goodbye DCB              "Thank you. Goodbye!", NULL
 1482 00000060                 ALIGN
 1483 00000060 20 78 20 
              30 2E 30 
              31 20 73 
              00       TimeUnit
                               DCB              " x 0.01 s", NULL
 1484 0000006A 00 00           ALIGN
 1485 0000006C         ;>>>>>   end constants here <<<<<
 1486 0000006C                 ALIGN



ARM Macro Assembler    Page 41 Exercise 10 Timer Driver Input Timing 


 1487 0000006C         ;****************************************************************
 1488 0000006C         ;Variables
 1489 0000006C                 AREA             MyData,DATA,READWRITE
 1490 00000000         ;>>>>> begin variables here <<<<<
 1491 00000000         ;Lab10 Timer Driver
 1492 00000000 00      RunStopWatch
                               SPACE            1
 1493 00000001 00 00 00        ALIGN
 1494 00000004 00 00 00 
              00       Count   SPACE            4
 1495 00000008 00 00 00 
              00 00 00 
              00 00 00 
              00 00 00 
              00 00 00 
              00 00 00 
              00 00 00 
              00 00 00 
              00 00 00 
              00 00 00 
              00 00 00 
              00 00 00 
              00 00 00 
              00 00 00 
              00 00 00 
              00 00 00 
              00 00 00 
              00 00 00 
              00 00 00 
              00 00 00 
              00 00 00 
              00 00 00 
              00 00 00 
              00 00 00 
              00 00 00 
              00 00 00 
              00       InputString
                               SPACE            MAX_STRING
 1496 00000057 00              ALIGN
 1497 00000058         
 1498 00000058         ;Queue structures from Lab 9
 1499 00000058 00 00 00 



ARM Macro Assembler    Page 42 Exercise 10 Timer Driver Input Timing 


              00       RxQBuffer
                               SPACE            Q_BUF_SZ
 1500 0000005C 00 00 00 
              00 00 00 
              00 00 00 
              00 00 00 
              00 00 00 
              00 00 00 RxQRecord
                               SPACE            Q_REC_SZ
 1501 0000006E 00 00           ALIGN
 1502 00000070 00 00 00 
              00       TxQBuffer
                               SPACE            Q_BUF_SZ
 1503 00000074 00 00 00 
              00 00 00 
              00 00 00 
              00 00 00 
              00 00 00 
              00 00 00 TxQRecord
                               SPACE            Q_REC_SZ
 1504 00000086 00 00           ALIGN
 1505 00000088         
 1506 00000088         ;Queue structures from Lab 7
 1507 00000088 00 00 00 
              00       QBuffer SPACE            Q_BUF_SZ    ;Queue contents 
 1508 0000008C 00 00 00 
              00 00 00 
              00 00 00 
              00 00 00 
              00 00 00 
              00 00 00 QRecord SPACE            Q_REC_SZ    ;Queue management record 
 1509 0000009E 00 00           ALIGN
 1510 000000A0         ;from lab 6 
 1511 000000A0 00 00 00 
              00 00 00 
              00 00 00 
              00 00 00 
              00 00 00 
              00 00 00 
              00 00 00 
              00 00 00 
              00 00 00 



ARM Macro Assembler    Page 43 Exercise 10 Timer Driver Input Timing 


              00 00 00 
              00 00 00 
              00 00 00 
              00 00 00 
              00 00 00 
              00 00 00 
              00 00 00 
              00 00 00 
              00 00 00 
              00 00 00 
              00 00 00 
              00 00 00 
              00 00 00 
              00 00 00 
              00 00 00 
              00 00 00 
              00 00 00 
              00       StringBuffer
                               SPACE            MAX_STRING
 1512 000000EF 00 00 00 
              00 00 00 
              00 00 00 
              00 00 00 
              00 00 00 
              00 00 00 
              00 00 00 
              00 00 00 
              00 00 00 
              00 00 00 
              00 00 00 
              00 00 00 
              00 00 00 
              00 00 00 
              00 00 00 
              00 00 00 
              00 00 00 
              00 00 00 
              00 00 00 
              00 00 00 
              00 00 00 
              00 00 00 
              00 00 00 



ARM Macro Assembler    Page 44 Exercise 10 Timer Driver Input Timing 


              00 00 00 
              00 00 00 
              00 00 00 
              00       StringReversal
                               SPACE            MAX_STRING
 1513 0000013E         ;>>>>>   end variables here <<<<<
 1514 0000013E 00 00           ALIGN
 1515 00000140                 END
Command Line: --debug --xref --length=49 --width=120 --diag_suppress=9931 --cpu=Cortex-M0+ --apcs=interwork --depend=.\o
bjects\lab10.d -o.\objects\lab10.o -IC:\Users\shubh\AppData\Local\Arm\Packs\Keil\Kinetis_KLxx_DFP\1.14.0\Device\Include 
-IC:\Keil_v5\ARM\CMSIS\Include --predefine="__EVAL SETA 1" --predefine="__UVISION_VERSION SETA 533" --predefine="MKL05Z3
2xxx4 SETA 1" --list=.\listings\lab10.lst lab10.s



ARM Macro Assembler    Page 1 Alphabetic symbol ordering
Relocatable symbols

AdvanceCursor 00000488

Symbol: AdvanceCursor
   Definitions
      At line 1383 in file lab10.s
   Uses
      At line 287 in file lab10.s
      At line 311 in file lab10.s
      At line 322 in file lab10.s
      At line 331 in file lab10.s
      At line 355 in file lab10.s
      At line 366 in file lab10.s
      At line 374 in file lab10.s
      At line 398 in file lab10.s
      At line 409 in file lab10.s

BEGIN_ENQUEUE 0000028C

Symbol: BEGIN_ENQUEUE
   Definitions
      At line 865 in file lab10.s
   Uses
      At line 854 in file lab10.s
Comment: BEGIN_ENQUEUE used once
BS_Input 000003E4

Symbol: BS_Input
   Definitions
      At line 1228 in file lab10.s
   Uses
      At line 1222 in file lab10.s
Comment: BS_Input used once
CHECK_RX_INT 000001FA

Symbol: CHECK_RX_INT
   Definitions
      At line 591 in file lab10.s
   Uses
      At line 554 in file lab10.s
      At line 563 in file lab10.s

DEQUEUE_CLEAR_PSR 0000024E



ARM Macro Assembler    Page 2 Alphabetic symbol ordering
Relocatable symbols


Symbol: DEQUEUE_CLEAR_PSR
   Definitions
      At line 809 in file lab10.s
   Uses
      At line 801 in file lab10.s
Comment: DEQUEUE_CLEAR_PSR used once
DEQUEUE_FAILURE 0000025E

Symbol: DEQUEUE_FAILURE
   Definitions
      At line 820 in file lab10.s
   Uses
      At line 775 in file lab10.s
Comment: DEQUEUE_FAILURE used once
DISABLE_TX 000001F4

Symbol: DISABLE_TX
   Definitions
      At line 583 in file lab10.s
   Uses
      At line 573 in file lab10.s
Comment: DISABLE_TX used once
DIV10 00000412

Symbol: DIV10
   Definitions
      At line 1284 in file lab10.s
   Uses
      At line 1306 in file lab10.s
Comment: DIV10 used once
DIVU 00000448

Symbol: DIVU
   Definitions
      At line 1337 in file lab10.s
   Uses
      At line 1294 in file lab10.s
Comment: DIVU used once
DIV_BY_0 00000478

Symbol: DIV_BY_0



ARM Macro Assembler    Page 3 Alphabetic symbol ordering
Relocatable symbols

   Definitions
      At line 1374 in file lab10.s
   Uses
      At line 1348 in file lab10.s
Comment: DIV_BY_0 used once
DIV_DONE 0000046E

Symbol: DIV_DONE
   Definitions
      At line 1367 in file lab10.s
   Uses
      At line 1379 in file lab10.s
Comment: DIV_DONE used once
DIV_END 00000460

Symbol: DIV_END
   Definitions
      At line 1361 in file lab10.s
   Uses
      At line 1356 in file lab10.s
      At line 1372 in file lab10.s

DIV_OF_0 00000472

Symbol: DIV_OF_0
   Definitions
      At line 1370 in file lab10.s
   Uses
      At line 1350 in file lab10.s
Comment: DIV_OF_0 used once
Dequeue 0000022C

Symbol: Dequeue
   Definitions
      At line 760 in file lab10.s
   Uses
      At line 570 in file lab10.s
      At line 1145 in file lab10.s

END_DEQUEUE 0000026C

Symbol: END_DEQUEUE



ARM Macro Assembler    Page 4 Alphabetic symbol ordering
Relocatable symbols

   Definitions
      At line 828 in file lab10.s
   Uses
      At line 818 in file lab10.s
Comment: END_DEQUEUE used once
END_ENQUEUE 000002C4

Symbol: END_ENQUEUE
   Definitions
      At line 916 in file lab10.s
   Uses
      At line 863 in file lab10.s
      At line 902 in file lab10.s

END_GetStringSB 000003EC

Symbol: END_GetStringSB
   Definitions
      At line 1234 in file lab10.s
   Uses
      At line 1210 in file lab10.s
Comment: END_GetStringSB used once
END_ISR 00000212

Symbol: END_ISR
   Definitions
      At line 616 in file lab10.s
   Uses
      At line 581 in file lab10.s
      At line 589 in file lab10.s
      At line 600 in file lab10.s

END_PIT_ISR 000001C0

Symbol: END_PIT_ISR
   Definitions
      At line 522 in file lab10.s
   Uses
      At line 513 in file lab10.s
Comment: END_PIT_ISR used once
END_PRINT_HEX 000002F2




ARM Macro Assembler    Page 5 Alphabetic symbol ordering
Relocatable symbols

Symbol: END_PRINT_HEX
   Definitions
      At line 975 in file lab10.s
   Uses
      At line 938 in file lab10.s
Comment: END_PRINT_HEX used once
END_PUTNUM 00000446

Symbol: END_PUTNUM
   Definitions
      At line 1332 in file lab10.s
   Uses
      At line 1320 in file lab10.s
Comment: END_PUTNUM used once
END_PutNumU 0000042A

Symbol: END_PutNumU
   Definitions
      At line 1308 in file lab10.s
   Uses
      At line 1287 in file lab10.s
Comment: END_PutNumU used once
END_PutStringSB 0000040C

Symbol: END_PutStringSB
   Definitions
      At line 1269 in file lab10.s
   Uses
      At line 1254 in file lab10.s
      At line 1260 in file lab10.s

Enqueue 00000270

Symbol: Enqueue
   Definitions
      At line 834 in file lab10.s
   Uses
      At line 611 in file lab10.s
      At line 1177 in file lab10.s

GetChar 0000039C




ARM Macro Assembler    Page 6 Alphabetic symbol ordering
Relocatable symbols

Symbol: GetChar
   Definitions
      At line 1126 in file lab10.s
   Uses
      At line 1206 in file lab10.s
Comment: GetChar used once
GetStringSB 000003C2

Symbol: GetStringSB
   Definitions
      At line 1195 in file lab10.s
   Uses
      At line 303 in file lab10.s
      At line 347 in file lab10.s
      At line 390 in file lab10.s

HEX_PRINT_LOOP 000002CC

Symbol: HEX_PRINT_LOOP
   Definitions
      At line 934 in file lab10.s
   Uses
      At line 973 in file lab10.s
Comment: HEX_PRINT_LOOP used once
INCR_COUNT 000001B8

Symbol: INCR_COUNT
   Definitions
      At line 515 in file lab10.s
   Uses
      At line 512 in file lab10.s
Comment: INCR_COUNT used once
INPUT 000003C8

Symbol: INPUT
   Definitions
      At line 1204 in file lab10.s
   Uses
      At line 1213 in file lab10.s
      At line 1226 in file lab10.s
      At line 1230 in file lab10.s
      At line 1232 in file lab10.s



ARM Macro Assembler    Page 7 Alphabetic symbol ordering
Relocatable symbols


InitQueue 00000216

Symbol: InitQueue
   Definitions
      At line 721 in file lab10.s
   Uses
      At line 1016 in file lab10.s
      At line 1022 in file lab10.s

Init_PIT_IRQ 00000174

Symbol: Init_PIT_IRQ
   Definitions
      At line 423 in file lab10.s
   Uses
      At line 270 in file lab10.s
Comment: Init_PIT_IRQ used once
Init_UART0_IRQ 00000302

Symbol: Init_UART0_IRQ
   Definitions
      At line 1001 in file lab10.s
   Uses
      At line 269 in file lab10.s
Comment: Init_UART0_IRQ used once
MyCode 00000000

Symbol: MyCode
   Definitions
      At line 258 in file lab10.s
   Uses
      None
Comment: MyCode unused
PIT_ISR 000001AE

Symbol: PIT_ISR
   Definitions
      At line 497 in file lab10.s
   Uses
      At line 1457 in file lab10.s
Comment: PIT_ISR used once



ARM Macro Assembler    Page 8 Alphabetic symbol ordering
Relocatable symbols

PRINT_CHAR 00000432

Symbol: PRINT_CHAR
   Definitions
      At line 1315 in file lab10.s
   Uses
      At line 1330 in file lab10.s
Comment: PRINT_CHAR used once
PRINT_HX 000002E2

Symbol: PRINT_HX
   Definitions
      At line 962 in file lab10.s
   Uses
      At line 954 in file lab10.s
Comment: PRINT_HX used once
PRINT_LETTER 000002E0

Symbol: PRINT_LETTER
   Definitions
      At line 956 in file lab10.s
   Uses
      At line 950 in file lab10.s
Comment: PRINT_LETTER used once
PutChar 000003AC

Symbol: PutChar
   Definitions
      At line 1157 in file lab10.s
   Uses
      At line 289 in file lab10.s
      At line 313 in file lab10.s
      At line 333 in file lab10.s
      At line 357 in file lab10.s
      At line 376 in file lab10.s
      At line 400 in file lab10.s
      At line 967 in file lab10.s
      At line 1215 in file lab10.s
      At line 1262 in file lab10.s
      At line 1311 in file lab10.s
      At line 1326 in file lab10.s
      At line 1390 in file lab10.s



ARM Macro Assembler    Page 9 Alphabetic symbol ordering
Relocatable symbols

      At line 1392 in file lab10.s

PutNumHex 000002C8

Symbol: PutNumHex
   Definitions
      At line 923 in file lab10.s
   Uses
      None
Comment: PutNumHex unused
PutNumU 0000040E

Symbol: PutNumU
   Definitions
      At line 1275 in file lab10.s
   Uses
      At line 319 in file lab10.s
      At line 363 in file lab10.s
      At line 406 in file lab10.s
      At line 995 in file lab10.s

PutNumUB 000002F4

Symbol: PutNumUB
   Definitions
      At line 982 in file lab10.s
   Uses
      None
Comment: PutNumUB unused
PutStringSB 000003F2

Symbol: PutStringSB
   Definitions
      At line 1244 in file lab10.s
   Uses
      At line 286 in file lab10.s
      At line 321 in file lab10.s
      At line 330 in file lab10.s
      At line 365 in file lab10.s
      At line 373 in file lab10.s
      At line 408 in file lab10.s
      At line 413 in file lab10.s



ARM Macro Assembler    Page 10 Alphabetic symbol ordering
Relocatable symbols


QUEUE_FULL 0000027C

Symbol: QUEUE_FULL
   Definitions
      At line 856 in file lab10.s
   Uses
      At line 853 in file lab10.s
Comment: QUEUE_FULL used once
READ_CHAR 000003FC

Symbol: READ_CHAR
   Definitions
      At line 1257 in file lab10.s
   Uses
      At line 1267 in file lab10.s
Comment: READ_CHAR used once
REPEAT_GET 000003A0

Symbol: REPEAT_GET
   Definitions
      At line 1139 in file lab10.s
   Uses
      At line 1150 in file lab10.s
Comment: REPEAT_GET used once
REPEAT_PUT 000003AE

Symbol: REPEAT_PUT
   Definitions
      At line 1167 in file lab10.s
   Uses
      At line 1182 in file lab10.s
Comment: REPEAT_PUT used once
Reset_Handler 00000000

Symbol: Reset_Handler
   Definitions
      At line 262 in file lab10.s
   Uses
      At line 260 in file lab10.s
      At line 1412 in file lab10.s




ARM Macro Assembler    Page 11 Alphabetic symbol ordering
Relocatable symbols

TX_ENABLED 000001DA

Symbol: TX_ENABLED
   Definitions
      At line 556 in file lab10.s
   Uses
      At line 551 in file lab10.s
Comment: TX_ENABLED used once
UART0_ISR 000001C8

Symbol: UART0_ISR
   Definitions
      At line 532 in file lab10.s
   Uses
      At line 1447 in file lab10.s
Comment: UART0_ISR used once
WRAP_BUFFER 0000024A

Symbol: WRAP_BUFFER
   Definitions
      At line 803 in file lab10.s
   Uses
      At line 798 in file lab10.s
Comment: WRAP_BUFFER used once
WRAP_ENQUEUE 000002B2

Symbol: WRAP_ENQUEUE
   Definitions
      At line 904 in file lab10.s
   Uses
      At line 893 in file lab10.s
Comment: WRAP_ENQUEUE used once
While 00000456

Symbol: While
   Definitions
      At line 1355 in file lab10.s
   Uses
      At line 1359 in file lab10.s
Comment: While used once
main 00000000




ARM Macro Assembler    Page 12 Alphabetic symbol ordering
Relocatable symbols

Symbol: main
   Definitions
      At line 263 in file lab10.s
   Uses
      None
Comment: main unused
53 symbols



ARM Macro Assembler    Page 1 Alphabetic symbol ordering
Relocatable symbols

RESET 00000000

Symbol: RESET
   Definitions
      At line 1402 in file lab10.s
   Uses
      None
Comment: RESET unused
__Vectors 00000000

Symbol: __Vectors
   Definitions
      At line 1409 in file lab10.s
   Uses
      At line 1403 in file lab10.s
      At line 1468 in file lab10.s

__Vectors_End 000000C0

Symbol: __Vectors_End
   Definitions
      At line 1467 in file lab10.s
   Uses
      At line 1404 in file lab10.s
      At line 1468 in file lab10.s

3 symbols



ARM Macro Assembler    Page 1 Alphabetic symbol ordering
Relocatable symbols

DatePrompt 00000014

Symbol: DatePrompt
   Definitions
      At line 1477 in file lab10.s
   Uses
      At line 327 in file lab10.s
Comment: DatePrompt used once
Goodbye 0000004C

Symbol: Goodbye
   Definitions
      At line 1481 in file lab10.s
   Uses
      At line 412 in file lab10.s
Comment: Goodbye used once
MyConst 00000000

Symbol: MyConst
   Definitions
      At line 1472 in file lab10.s
   Uses
      None
Comment: MyConst unused
NamePrompt 00000000

Symbol: NamePrompt
   Definitions
      At line 1475 in file lab10.s
   Uses
      At line 283 in file lab10.s
Comment: NamePrompt used once
TAPrompt 00000024

Symbol: TAPrompt
   Definitions
      At line 1479 in file lab10.s
   Uses
      At line 370 in file lab10.s
Comment: TAPrompt used once
TimeUnit 00000060




ARM Macro Assembler    Page 2 Alphabetic symbol ordering
Relocatable symbols

Symbol: TimeUnit
   Definitions
      At line 1483 in file lab10.s
   Uses
      At line 320 in file lab10.s
      At line 364 in file lab10.s
      At line 407 in file lab10.s

6 symbols



ARM Macro Assembler    Page 1 Alphabetic symbol ordering
Relocatable symbols

Count 00000004

Symbol: Count
   Definitions
      At line 1494 in file lab10.s
   Uses
      At line 278 in file lab10.s
      At line 292 in file lab10.s
      At line 316 in file lab10.s
      At line 336 in file lab10.s
      At line 360 in file lab10.s
      At line 379 in file lab10.s
      At line 403 in file lab10.s
      At line 517 in file lab10.s

InputString 00000008

Symbol: InputString
   Definitions
      At line 1495 in file lab10.s
   Uses
      At line 302 in file lab10.s
      At line 346 in file lab10.s
      At line 389 in file lab10.s

MyData 00000000

Symbol: MyData
   Definitions
      At line 1489 in file lab10.s
   Uses
      None
Comment: MyData unused
QBuffer 00000088

Symbol: QBuffer
   Definitions
      At line 1507 in file lab10.s
   Uses
      None
Comment: QBuffer unused
QRecord 0000008C



ARM Macro Assembler    Page 2 Alphabetic symbol ordering
Relocatable symbols


Symbol: QRecord
   Definitions
      At line 1508 in file lab10.s
   Uses
      None
Comment: QRecord unused
RunStopWatch 00000000

Symbol: RunStopWatch
   Definitions
      At line 1492 in file lab10.s
   Uses
      At line 274 in file lab10.s
      At line 296 in file lab10.s
      At line 306 in file lab10.s
      At line 340 in file lab10.s
      At line 350 in file lab10.s
      At line 383 in file lab10.s
      At line 393 in file lab10.s
      At line 508 in file lab10.s

RxQBuffer 00000058

Symbol: RxQBuffer
   Definitions
      At line 1499 in file lab10.s
   Uses
      At line 1014 in file lab10.s
Comment: RxQBuffer used once
RxQRecord 0000005C

Symbol: RxQRecord
   Definitions
      At line 1500 in file lab10.s
   Uses
      At line 608 in file lab10.s
      At line 1013 in file lab10.s
      At line 1137 in file lab10.s

StringBuffer 000000A0




ARM Macro Assembler    Page 3 Alphabetic symbol ordering
Relocatable symbols

Symbol: StringBuffer
   Definitions
      At line 1511 in file lab10.s
   Uses
      At line 285 in file lab10.s
      At line 329 in file lab10.s
      At line 372 in file lab10.s

StringReversal 000000EF

Symbol: StringReversal
   Definitions
      At line 1512 in file lab10.s
   Uses
      At line 1298 in file lab10.s
      At line 1317 in file lab10.s

TxQBuffer 00000070

Symbol: TxQBuffer
   Definitions
      At line 1502 in file lab10.s
   Uses
      At line 1020 in file lab10.s
Comment: TxQBuffer used once
TxQRecord 00000074

Symbol: TxQRecord
   Definitions
      At line 1503 in file lab10.s
   Uses
      At line 567 in file lab10.s
      At line 1019 in file lab10.s
      At line 1170 in file lab10.s

12 symbols



ARM Macro Assembler    Page 1 Alphabetic symbol ordering
Absolute symbols

ADC0_IPR E000E40C

Symbol: ADC0_IPR
   Definitions
      At line 929 in file MKL05Z4.s
   Uses
      None
Comment: ADC0_IPR unused
ADC0_IRQ_MASK 00008000

Symbol: ADC0_IRQ_MASK
   Definitions
      At line 999 in file MKL05Z4.s
   Uses
      None
Comment: ADC0_IRQ_MASK unused
ADC0_IRQn 0000000F

Symbol: ADC0_IRQn
   Definitions
      At line 178 in file MKL05Z4.s
   Uses
      At line 999 in file MKL05Z4.s
Comment: ADC0_IRQn used once
ADC0_PRI_POS 0000001E

Symbol: ADC0_PRI_POS
   Definitions
      At line 965 in file MKL05Z4.s
   Uses
      None
Comment: ADC0_PRI_POS unused
ADC0_Vector 0000001F

Symbol: ADC0_Vector
   Definitions
      At line 1050 in file MKL05Z4.s
   Uses
      None
Comment: ADC0_Vector unused
APSR_C_MASK 20000000




ARM Macro Assembler    Page 2 Alphabetic symbol ordering
Absolute symbols

Symbol: APSR_C_MASK
   Definitions
      At line 90 in file MKL05Z4.s
   Uses
      At line 129 in file MKL05Z4.s
Comment: APSR_C_MASK used once
APSR_C_SHIFT 0000001D

Symbol: APSR_C_SHIFT
   Definitions
      At line 91 in file MKL05Z4.s
   Uses
      At line 130 in file MKL05Z4.s
Comment: APSR_C_SHIFT used once
APSR_MASK F0000000

Symbol: APSR_MASK
   Definitions
      At line 84 in file MKL05Z4.s
   Uses
      None
Comment: APSR_MASK unused
APSR_N_MASK 80000000

Symbol: APSR_N_MASK
   Definitions
      At line 86 in file MKL05Z4.s
   Uses
      At line 125 in file MKL05Z4.s
Comment: APSR_N_MASK used once
APSR_N_SHIFT 0000001F

Symbol: APSR_N_SHIFT
   Definitions
      At line 87 in file MKL05Z4.s
   Uses
      At line 126 in file MKL05Z4.s
Comment: APSR_N_SHIFT used once
APSR_SHIFT 0000001C

Symbol: APSR_SHIFT
   Definitions



ARM Macro Assembler    Page 3 Alphabetic symbol ordering
Absolute symbols

      At line 85 in file MKL05Z4.s
   Uses
      None
Comment: APSR_SHIFT unused
APSR_V_MASK 10000000

Symbol: APSR_V_MASK
   Definitions
      At line 92 in file MKL05Z4.s
   Uses
      At line 131 in file MKL05Z4.s
Comment: APSR_V_MASK used once
APSR_V_SHIFT 0000001C

Symbol: APSR_V_SHIFT
   Definitions
      At line 93 in file MKL05Z4.s
   Uses
      At line 132 in file MKL05Z4.s
Comment: APSR_V_SHIFT used once
APSR_Z_MASK 40000000

Symbol: APSR_Z_MASK
   Definitions
      At line 88 in file MKL05Z4.s
   Uses
      At line 127 in file MKL05Z4.s
Comment: APSR_Z_MASK used once
APSR_Z_SHIFT 0000001E

Symbol: APSR_Z_SHIFT
   Definitions
      At line 89 in file MKL05Z4.s
   Uses
      At line 128 in file MKL05Z4.s
Comment: APSR_Z_SHIFT used once
BS 00000008

Symbol: BS
   Definitions
      At line 49 in file lab10.s
   Uses



ARM Macro Assembler    Page 4 Alphabetic symbol ordering
Absolute symbols

      At line 1221 in file lab10.s
Comment: BS used once
BUF_PAST 0000000C

Symbol: BUF_PAST
   Definitions
      At line 30 in file lab10.s
   Uses
      At line 746 in file lab10.s
      At line 796 in file lab10.s
      At line 890 in file lab10.s

BUF_SIZE 00000010

Symbol: BUF_SIZE
   Definitions
      At line 31 in file lab10.s
   Uses
      At line 749 in file lab10.s
      At line 851 in file lab10.s

BUF_STRT 00000008

Symbol: BUF_STRT
   Definitions
      At line 29 in file lab10.s
   Uses
      At line 742 in file lab10.s
      At line 806 in file lab10.s
      At line 906 in file lab10.s

BYTE_BITS 00000008

Symbol: BYTE_BITS
   Definitions
      At line 36 in file MKL05Z4.s
   Uses
      None
Comment: BYTE_BITS unused
BYTE_MASK 000000FF

Symbol: BYTE_MASK



ARM Macro Assembler    Page 5 Alphabetic symbol ordering
Absolute symbols

   Definitions
      At line 33 in file MKL05Z4.s
   Uses
      None
Comment: BYTE_MASK unused
BackDoorK0 000000FF

Symbol: BackDoorK0
   Definitions
      At line 207 in file MKL05Z4.s
   Uses
      None
Comment: BackDoorK0 unused
BackDoorK1 000000FF

Symbol: BackDoorK1
   Definitions
      At line 212 in file MKL05Z4.s
   Uses
      None
Comment: BackDoorK1 unused
BackDoorK2 000000FF

Symbol: BackDoorK2
   Definitions
      At line 217 in file MKL05Z4.s
   Uses
      None
Comment: BackDoorK2 unused
BackDoorK3 000000FF

Symbol: BackDoorK3
   Definitions
      At line 222 in file MKL05Z4.s
   Uses
      None
Comment: BackDoorK3 unused
BackDoorK4 000000FF

Symbol: BackDoorK4
   Definitions
      At line 227 in file MKL05Z4.s



ARM Macro Assembler    Page 6 Alphabetic symbol ordering
Absolute symbols

   Uses
      None
Comment: BackDoorK4 unused
BackDoorK5 000000FF

Symbol: BackDoorK5
   Definitions
      At line 232 in file MKL05Z4.s
   Uses
      None
Comment: BackDoorK5 unused
BackDoorK6 000000FF

Symbol: BackDoorK6
   Definitions
      At line 237 in file MKL05Z4.s
   Uses
      None
Comment: BackDoorK6 unused
BackDoorK7 000000FF

Symbol: BackDoorK7
   Definitions
      At line 242 in file MKL05Z4.s
   Uses
      None
Comment: BackDoorK7 unused
CMP0_IPR E000E410

Symbol: CMP0_IPR
   Definitions
      At line 930 in file MKL05Z4.s
   Uses
      None
Comment: CMP0_IPR unused
CMP0_IRQ_MASK 00010000

Symbol: CMP0_IRQ_MASK
   Definitions
      At line 1000 in file MKL05Z4.s
   Uses
      None



ARM Macro Assembler    Page 7 Alphabetic symbol ordering
Absolute symbols

Comment: CMP0_IRQ_MASK unused
CMP0_IRQn 00000010

Symbol: CMP0_IRQn
   Definitions
      At line 179 in file MKL05Z4.s
   Uses
      At line 1000 in file MKL05Z4.s
Comment: CMP0_IRQn used once
CMP0_PRI_POS 00000006

Symbol: CMP0_PRI_POS
   Definitions
      At line 966 in file MKL05Z4.s
   Uses
      None
Comment: CMP0_PRI_POS unused
CMP0_Vector 00000020

Symbol: CMP0_Vector
   Definitions
      At line 1051 in file MKL05Z4.s
   Uses
      None
Comment: CMP0_Vector unused
CONTROL_SPSEL_MASK 00000002

Symbol: CONTROL_SPSEL_MASK
   Definitions
      At line 60 in file MKL05Z4.s
   Uses
      None
Comment: CONTROL_SPSEL_MASK unused
CONTROL_SPSEL_SHIFT 00000001

Symbol: CONTROL_SPSEL_SHIFT
   Definitions
      At line 61 in file MKL05Z4.s
   Uses
      None
Comment: CONTROL_SPSEL_SHIFT unused
CONTROL_nPRIV_MASK 00000001



ARM Macro Assembler    Page 8 Alphabetic symbol ordering
Absolute symbols


Symbol: CONTROL_nPRIV_MASK
   Definitions
      At line 62 in file MKL05Z4.s
   Uses
      None
Comment: CONTROL_nPRIV_MASK unused
CONTROL_nPRIV_SHIFT 00000000

Symbol: CONTROL_nPRIV_SHIFT
   Definitions
      At line 63 in file MKL05Z4.s
   Uses
      None
Comment: CONTROL_nPRIV_SHIFT unused
COP_COPCLKS_MASK 00000002

Symbol: COP_COPCLKS_MASK
   Definitions
      At line 1536 in file MKL05Z4.s
   Uses
      None
Comment: COP_COPCLKS_MASK unused
COP_COPCLKS_SHIFT 00000001

Symbol: COP_COPCLKS_SHIFT
   Definitions
      At line 1537 in file MKL05Z4.s
   Uses
      None
Comment: COP_COPCLKS_SHIFT unused
COP_COPT_MASK 0000000C

Symbol: COP_COPT_MASK
   Definitions
      At line 1534 in file MKL05Z4.s
   Uses
      None
Comment: COP_COPT_MASK unused
COP_COPT_SHIFT 00000002

Symbol: COP_COPT_SHIFT



ARM Macro Assembler    Page 9 Alphabetic symbol ordering
Absolute symbols

   Definitions
      At line 1535 in file MKL05Z4.s
   Uses
      None
Comment: COP_COPT_SHIFT unused
COP_COPW_MASK 00000001

Symbol: COP_COPW_MASK
   Definitions
      At line 1538 in file MKL05Z4.s
   Uses
      None
Comment: COP_COPW_MASK unused
COP_COPW_SHIFT 00000001

Symbol: COP_COPW_SHIFT
   Definitions
      At line 1539 in file MKL05Z4.s
   Uses
      None
Comment: COP_COPW_SHIFT unused
CR 0000000D

Symbol: CR
   Definitions
      At line 47 in file lab10.s
   Uses
      At line 1209 in file lab10.s
      At line 1389 in file lab10.s

C_MASK 00000020

Symbol: C_MASK
   Definitions
      At line 39 in file lab10.s
   Uses
      At line 812 in file lab10.s
      At line 823 in file lab10.s
      At line 859 in file lab10.s
      At line 897 in file lab10.s
      At line 911 in file lab10.s
      At line 1362 in file lab10.s



ARM Macro Assembler    Page 10 Alphabetic symbol ordering
Absolute symbols

      At line 1375 in file lab10.s

C_SHIFT 00000018

Symbol: C_SHIFT
   Definitions
      At line 40 in file lab10.s
   Uses
      At line 813 in file lab10.s
      At line 824 in file lab10.s
      At line 860 in file lab10.s
      At line 898 in file lab10.s
      At line 912 in file lab10.s
      At line 1363 in file lab10.s
      At line 1376 in file lab10.s

DAC0_IPR E000E418

Symbol: DAC0_IPR
   Definitions
      At line 939 in file MKL05Z4.s
   Uses
      None
Comment: DAC0_IPR unused
DAC0_IRQ_MASK 02000000

Symbol: DAC0_IRQ_MASK
   Definitions
      At line 1009 in file MKL05Z4.s
   Uses
      None
Comment: DAC0_IRQ_MASK unused
DAC0_IRQn 00000019

Symbol: DAC0_IRQn
   Definitions
      At line 188 in file MKL05Z4.s
   Uses
      At line 1009 in file MKL05Z4.s
Comment: DAC0_IRQn used once
DAC0_PRI_POS 0000000E




ARM Macro Assembler    Page 11 Alphabetic symbol ordering
Absolute symbols

Symbol: DAC0_PRI_POS
   Definitions
      At line 975 in file MKL05Z4.s
   Uses
      None
Comment: DAC0_PRI_POS unused
DAC0_Vector 00000029

Symbol: DAC0_Vector
   Definitions
      At line 1060 in file MKL05Z4.s
   Uses
      None
Comment: DAC0_Vector unused
DMA0_IPR E000E400

Symbol: DMA0_IPR
   Definitions
      At line 914 in file MKL05Z4.s
   Uses
      None
Comment: DMA0_IPR unused
DMA0_IRQ_MASK 00000001

Symbol: DMA0_IRQ_MASK
   Definitions
      At line 984 in file MKL05Z4.s
   Uses
      None
Comment: DMA0_IRQ_MASK unused
DMA0_IRQn 00000000

Symbol: DMA0_IRQn
   Definitions
      At line 163 in file MKL05Z4.s
   Uses
      At line 984 in file MKL05Z4.s
Comment: DMA0_IRQn used once
DMA0_PRI_POS 00000006

Symbol: DMA0_PRI_POS
   Definitions



ARM Macro Assembler    Page 12 Alphabetic symbol ordering
Absolute symbols

      At line 950 in file MKL05Z4.s
   Uses
      None
Comment: DMA0_PRI_POS unused
DMA0_Vector 00000010

Symbol: DMA0_Vector
   Definitions
      At line 1035 in file MKL05Z4.s
   Uses
      None
Comment: DMA0_Vector unused
DMA1_IPR E000E400

Symbol: DMA1_IPR
   Definitions
      At line 915 in file MKL05Z4.s
   Uses
      None
Comment: DMA1_IPR unused
DMA1_IRQ_MASK 00000002

Symbol: DMA1_IRQ_MASK
   Definitions
      At line 985 in file MKL05Z4.s
   Uses
      None
Comment: DMA1_IRQ_MASK unused
DMA1_IRQn 00000001

Symbol: DMA1_IRQn
   Definitions
      At line 164 in file MKL05Z4.s
   Uses
      At line 985 in file MKL05Z4.s
Comment: DMA1_IRQn used once
DMA1_PRI_POS 0000000E

Symbol: DMA1_PRI_POS
   Definitions
      At line 951 in file MKL05Z4.s
   Uses



ARM Macro Assembler    Page 13 Alphabetic symbol ordering
Absolute symbols

      None
Comment: DMA1_PRI_POS unused
DMA1_Vector 00000011

Symbol: DMA1_Vector
   Definitions
      At line 1036 in file MKL05Z4.s
   Uses
      None
Comment: DMA1_Vector unused
DMA2_IPR E000E400

Symbol: DMA2_IPR
   Definitions
      At line 916 in file MKL05Z4.s
   Uses
      None
Comment: DMA2_IPR unused
DMA2_IRQ_MASK 00000004

Symbol: DMA2_IRQ_MASK
   Definitions
      At line 986 in file MKL05Z4.s
   Uses
      None
Comment: DMA2_IRQ_MASK unused
DMA2_IRQn 00000002

Symbol: DMA2_IRQn
   Definitions
      At line 165 in file MKL05Z4.s
   Uses
      At line 986 in file MKL05Z4.s
Comment: DMA2_IRQn used once
DMA2_PRI_POS 00000016

Symbol: DMA2_PRI_POS
   Definitions
      At line 952 in file MKL05Z4.s
   Uses
      None
Comment: DMA2_PRI_POS unused



ARM Macro Assembler    Page 14 Alphabetic symbol ordering
Absolute symbols

DMA2_Vector 00000012

Symbol: DMA2_Vector
   Definitions
      At line 1037 in file MKL05Z4.s
   Uses
      None
Comment: DMA2_Vector unused
DMA3_IPR E000E400

Symbol: DMA3_IPR
   Definitions
      At line 917 in file MKL05Z4.s
   Uses
      None
Comment: DMA3_IPR unused
DMA3_IRQ_MASK 00000008

Symbol: DMA3_IRQ_MASK
   Definitions
      At line 987 in file MKL05Z4.s
   Uses
      None
Comment: DMA3_IRQ_MASK unused
DMA3_IRQn 00000003

Symbol: DMA3_IRQn
   Definitions
      At line 166 in file MKL05Z4.s
   Uses
      At line 987 in file MKL05Z4.s
Comment: DMA3_IRQn used once
DMA3_PRI_POS 0000001E

Symbol: DMA3_PRI_POS
   Definitions
      At line 953 in file MKL05Z4.s
   Uses
      None
Comment: DMA3_PRI_POS unused
DMA3_Vector 00000013




ARM Macro Assembler    Page 15 Alphabetic symbol ordering
Absolute symbols

Symbol: DMA3_Vector
   Definitions
      At line 1038 in file MKL05Z4.s
   Uses
      None
Comment: DMA3_Vector unused
EPSR_MASK 01000000

Symbol: EPSR_MASK
   Definitions
      At line 99 in file MKL05Z4.s
   Uses
      None
Comment: EPSR_MASK unused
EPSR_SHIFT 00000018

Symbol: EPSR_SHIFT
   Definitions
      At line 100 in file MKL05Z4.s
   Uses
      None
Comment: EPSR_SHIFT unused
EPSR_T_MASK 01000000

Symbol: EPSR_T_MASK
   Definitions
      At line 101 in file MKL05Z4.s
   Uses
      At line 133 in file MKL05Z4.s
Comment: EPSR_T_MASK used once
EPSR_T_SHIFT 00000018

Symbol: EPSR_T_SHIFT
   Definitions
      At line 102 in file MKL05Z4.s
   Uses
      At line 134 in file MKL05Z4.s
Comment: EPSR_T_SHIFT used once
FCF_BACKDOOR_KEY0 000000FF

Symbol: FCF_BACKDOOR_KEY0
   Definitions



ARM Macro Assembler    Page 16 Alphabetic symbol ordering
Absolute symbols

      At line 206 in file MKL05Z4.s
   Uses
      None
Comment: FCF_BACKDOOR_KEY0 unused
FCF_BACKDOOR_KEY1 000000FF

Symbol: FCF_BACKDOOR_KEY1
   Definitions
      At line 211 in file MKL05Z4.s
   Uses
      None
Comment: FCF_BACKDOOR_KEY1 unused
FCF_BACKDOOR_KEY2 000000FF

Symbol: FCF_BACKDOOR_KEY2
   Definitions
      At line 216 in file MKL05Z4.s
   Uses
      None
Comment: FCF_BACKDOOR_KEY2 unused
FCF_BACKDOOR_KEY3 000000FF

Symbol: FCF_BACKDOOR_KEY3
   Definitions
      At line 221 in file MKL05Z4.s
   Uses
      None
Comment: FCF_BACKDOOR_KEY3 unused
FCF_BACKDOOR_KEY4 000000FF

Symbol: FCF_BACKDOOR_KEY4
   Definitions
      At line 226 in file MKL05Z4.s
   Uses
      None
Comment: FCF_BACKDOOR_KEY4 unused
FCF_BACKDOOR_KEY5 000000FF

Symbol: FCF_BACKDOOR_KEY5
   Definitions
      At line 231 in file MKL05Z4.s
   Uses



ARM Macro Assembler    Page 17 Alphabetic symbol ordering
Absolute symbols

      None
Comment: FCF_BACKDOOR_KEY5 unused
FCF_BACKDOOR_KEY6 000000FF

Symbol: FCF_BACKDOOR_KEY6
   Definitions
      At line 236 in file MKL05Z4.s
   Uses
      None
Comment: FCF_BACKDOOR_KEY6 unused
FCF_BACKDOOR_KEY7 000000FF

Symbol: FCF_BACKDOOR_KEY7
   Definitions
      At line 241 in file MKL05Z4.s
   Uses
      None
Comment: FCF_BACKDOOR_KEY7 unused
FCF_FOPT 000000FF

Symbol: FCF_FOPT
   Definitions
      At line 253 in file MKL05Z4.s
   Uses
      None
Comment: FCF_FOPT unused
FCF_FPROT0 000000FF

Symbol: FCF_FPROT0
   Definitions
      At line 269 in file MKL05Z4.s
   Uses
      None
Comment: FCF_FPROT0 unused
FCF_FPROT1 000000FF

Symbol: FCF_FPROT1
   Definitions
      At line 282 in file MKL05Z4.s
   Uses
      None
Comment: FCF_FPROT1 unused



ARM Macro Assembler    Page 18 Alphabetic symbol ordering
Absolute symbols

FCF_FPROT2 000000FF

Symbol: FCF_FPROT2
   Definitions
      At line 295 in file MKL05Z4.s
   Uses
      None
Comment: FCF_FPROT2 unused
FCF_FPROT3 000000FF

Symbol: FCF_FPROT3
   Definitions
      At line 308 in file MKL05Z4.s
   Uses
      None
Comment: FCF_FPROT3 unused
FCF_FSEC 0000007E

Symbol: FCF_FSEC
   Definitions
      At line 339 in file MKL05Z4.s
   Uses
      None
Comment: FCF_FSEC unused
FGPIOA_BASE F80FF000

Symbol: FGPIOA_BASE
   Definitions
      At line 366 in file MKL05Z4.s
   Uses
      At line 367 in file MKL05Z4.s
      At line 368 in file MKL05Z4.s
      At line 369 in file MKL05Z4.s
      At line 370 in file MKL05Z4.s
      At line 371 in file MKL05Z4.s
      At line 372 in file MKL05Z4.s

FGPIOA_PCOR F80FF008

Symbol: FGPIOA_PCOR
   Definitions
      At line 369 in file MKL05Z4.s



ARM Macro Assembler    Page 19 Alphabetic symbol ordering
Absolute symbols

   Uses
      None
Comment: FGPIOA_PCOR unused
FGPIOA_PDDR F80FF014

Symbol: FGPIOA_PDDR
   Definitions
      At line 372 in file MKL05Z4.s
   Uses
      None
Comment: FGPIOA_PDDR unused
FGPIOA_PDIR F80FF010

Symbol: FGPIOA_PDIR
   Definitions
      At line 371 in file MKL05Z4.s
   Uses
      None
Comment: FGPIOA_PDIR unused
FGPIOA_PDOR F80FF000

Symbol: FGPIOA_PDOR
   Definitions
      At line 367 in file MKL05Z4.s
   Uses
      None
Comment: FGPIOA_PDOR unused
FGPIOA_PSOR F80FF004

Symbol: FGPIOA_PSOR
   Definitions
      At line 368 in file MKL05Z4.s
   Uses
      None
Comment: FGPIOA_PSOR unused
FGPIOA_PTOR F80FF00C

Symbol: FGPIOA_PTOR
   Definitions
      At line 370 in file MKL05Z4.s
   Uses
      None



ARM Macro Assembler    Page 20 Alphabetic symbol ordering
Absolute symbols

Comment: FGPIOA_PTOR unused
FGPIOB_BASE F80FF040

Symbol: FGPIOB_BASE
   Definitions
      At line 374 in file MKL05Z4.s
   Uses
      At line 375 in file MKL05Z4.s
      At line 376 in file MKL05Z4.s
      At line 377 in file MKL05Z4.s
      At line 378 in file MKL05Z4.s
      At line 379 in file MKL05Z4.s
      At line 380 in file MKL05Z4.s

FGPIOB_PCOR F80FF048

Symbol: FGPIOB_PCOR
   Definitions
      At line 377 in file MKL05Z4.s
   Uses
      None
Comment: FGPIOB_PCOR unused
FGPIOB_PDDR F80FF054

Symbol: FGPIOB_PDDR
   Definitions
      At line 380 in file MKL05Z4.s
   Uses
      None
Comment: FGPIOB_PDDR unused
FGPIOB_PDIR F80FF050

Symbol: FGPIOB_PDIR
   Definitions
      At line 379 in file MKL05Z4.s
   Uses
      None
Comment: FGPIOB_PDIR unused
FGPIOB_PDOR F80FF040

Symbol: FGPIOB_PDOR
   Definitions



ARM Macro Assembler    Page 21 Alphabetic symbol ordering
Absolute symbols

      At line 375 in file MKL05Z4.s
   Uses
      None
Comment: FGPIOB_PDOR unused
FGPIOB_PSOR F80FF044

Symbol: FGPIOB_PSOR
   Definitions
      At line 376 in file MKL05Z4.s
   Uses
      None
Comment: FGPIOB_PSOR unused
FGPIOB_PTOR F80FF04C

Symbol: FGPIOB_PTOR
   Definitions
      At line 378 in file MKL05Z4.s
   Uses
      None
Comment: FGPIOB_PTOR unused
FGPIO_BASE F80FF000

Symbol: FGPIO_BASE
   Definitions
      At line 356 in file MKL05Z4.s
   Uses
      None
Comment: FGPIO_BASE unused
FGPIO_PCOR_OFFSET 00000008

Symbol: FGPIO_PCOR_OFFSET
   Definitions
      At line 359 in file MKL05Z4.s
   Uses
      None
Comment: FGPIO_PCOR_OFFSET unused
FGPIO_PDDR_OFFSET 00000014

Symbol: FGPIO_PDDR_OFFSET
   Definitions
      At line 362 in file MKL05Z4.s
   Uses



ARM Macro Assembler    Page 22 Alphabetic symbol ordering
Absolute symbols

      None
Comment: FGPIO_PDDR_OFFSET unused
FGPIO_PDIR_OFFSET 00000010

Symbol: FGPIO_PDIR_OFFSET
   Definitions
      At line 361 in file MKL05Z4.s
   Uses
      None
Comment: FGPIO_PDIR_OFFSET unused
FGPIO_PDOR_OFFSET 00000000

Symbol: FGPIO_PDOR_OFFSET
   Definitions
      At line 357 in file MKL05Z4.s
   Uses
      None
Comment: FGPIO_PDOR_OFFSET unused
FGPIO_PSOR_OFFSET 00000004

Symbol: FGPIO_PSOR_OFFSET
   Definitions
      At line 358 in file MKL05Z4.s
   Uses
      None
Comment: FGPIO_PSOR_OFFSET unused
FGPIO_PTOR_OFFSET 0000000C

Symbol: FGPIO_PTOR_OFFSET
   Definitions
      At line 360 in file MKL05Z4.s
   Uses
      None
Comment: FGPIO_PTOR_OFFSET unused
FIVESEC 00000032

Symbol: FIVESEC
   Definitions
      At line 24 in file lab10.s
   Uses
      None
Comment: FIVESEC unused



ARM Macro Assembler    Page 23 Alphabetic symbol ordering
Absolute symbols

FOPT 000000FF

Symbol: FOPT
   Definitions
      At line 254 in file MKL05Z4.s
   Uses
      None
Comment: FOPT unused
FPROT0 000000FF

Symbol: FPROT0
   Definitions
      At line 271 in file MKL05Z4.s
   Uses
      None
Comment: FPROT0 unused
FPROT1 000000FF

Symbol: FPROT1
   Definitions
      At line 284 in file MKL05Z4.s
   Uses
      None
Comment: FPROT1 unused
FPROT2 000000FF

Symbol: FPROT2
   Definitions
      At line 297 in file MKL05Z4.s
   Uses
      None
Comment: FPROT2 unused
FPROT3 000000FF

Symbol: FPROT3
   Definitions
      At line 310 in file MKL05Z4.s
   Uses
      None
Comment: FPROT3 unused
FPTA_BASE F80FF000




ARM Macro Assembler    Page 24 Alphabetic symbol ordering
Absolute symbols

Symbol: FPTA_BASE
   Definitions
      At line 407 in file MKL05Z4.s
   Uses
      At line 408 in file MKL05Z4.s
      At line 409 in file MKL05Z4.s
      At line 410 in file MKL05Z4.s
      At line 411 in file MKL05Z4.s
      At line 412 in file MKL05Z4.s
      At line 413 in file MKL05Z4.s

FPTA_OFFSET 00000000

Symbol: FPTA_OFFSET
   Definitions
      At line 404 in file MKL05Z4.s
   Uses
      None
Comment: FPTA_OFFSET unused
FPTA_PCOR F80FF008

Symbol: FPTA_PCOR
   Definitions
      At line 410 in file MKL05Z4.s
   Uses
      None
Comment: FPTA_PCOR unused
FPTA_PDDR F80FF014

Symbol: FPTA_PDDR
   Definitions
      At line 413 in file MKL05Z4.s
   Uses
      None
Comment: FPTA_PDDR unused
FPTA_PDIR F80FF010

Symbol: FPTA_PDIR
   Definitions
      At line 412 in file MKL05Z4.s
   Uses
      None



ARM Macro Assembler    Page 25 Alphabetic symbol ordering
Absolute symbols

Comment: FPTA_PDIR unused
FPTA_PDOR F80FF000

Symbol: FPTA_PDOR
   Definitions
      At line 409 in file MKL05Z4.s
   Uses
      None
Comment: FPTA_PDOR unused
FPTA_PSOR F80FF004

Symbol: FPTA_PSOR
   Definitions
      At line 408 in file MKL05Z4.s
   Uses
      None
Comment: FPTA_PSOR unused
FPTA_PTOR F80FF00C

Symbol: FPTA_PTOR
   Definitions
      At line 411 in file MKL05Z4.s
   Uses
      None
Comment: FPTA_PTOR unused
FPTB_BASE F80FF040

Symbol: FPTB_BASE
   Definitions
      At line 415 in file MKL05Z4.s
   Uses
      At line 416 in file MKL05Z4.s
      At line 417 in file MKL05Z4.s
      At line 418 in file MKL05Z4.s
      At line 419 in file MKL05Z4.s
      At line 420 in file MKL05Z4.s
      At line 421 in file MKL05Z4.s

FPTB_OFFSET 00000040

Symbol: FPTB_OFFSET
   Definitions



ARM Macro Assembler    Page 26 Alphabetic symbol ordering
Absolute symbols

      At line 405 in file MKL05Z4.s
   Uses
      None
Comment: FPTB_OFFSET unused
FPTB_PCOR F80FF048

Symbol: FPTB_PCOR
   Definitions
      At line 418 in file MKL05Z4.s
   Uses
      None
Comment: FPTB_PCOR unused
FPTB_PDDR F80FF054

Symbol: FPTB_PDDR
   Definitions
      At line 421 in file MKL05Z4.s
   Uses
      None
Comment: FPTB_PDDR unused
FPTB_PDIR F80FF050

Symbol: FPTB_PDIR
   Definitions
      At line 420 in file MKL05Z4.s
   Uses
      None
Comment: FPTB_PDIR unused
FPTB_PDOR F80FF040

Symbol: FPTB_PDOR
   Definitions
      At line 416 in file MKL05Z4.s
   Uses
      None
Comment: FPTB_PDOR unused
FPTB_PSOR F80FF044

Symbol: FPTB_PSOR
   Definitions
      At line 417 in file MKL05Z4.s
   Uses



ARM Macro Assembler    Page 27 Alphabetic symbol ordering
Absolute symbols

      None
Comment: FPTB_PSOR unused
FPTB_PTOR F80FF04C

Symbol: FPTB_PTOR
   Definitions
      At line 419 in file MKL05Z4.s
   Uses
      None
Comment: FPTB_PTOR unused
FPT_BASE F80FF000

Symbol: FPT_BASE
   Definitions
      At line 397 in file MKL05Z4.s
   Uses
      None
Comment: FPT_BASE unused
FPT_PCOR_OFFSET 00000008

Symbol: FPT_PCOR_OFFSET
   Definitions
      At line 400 in file MKL05Z4.s
   Uses
      At line 410 in file MKL05Z4.s
      At line 418 in file MKL05Z4.s

FPT_PDDR_OFFSET 00000014

Symbol: FPT_PDDR_OFFSET
   Definitions
      At line 403 in file MKL05Z4.s
   Uses
      At line 413 in file MKL05Z4.s
      At line 421 in file MKL05Z4.s

FPT_PDIR_OFFSET 00000010

Symbol: FPT_PDIR_OFFSET
   Definitions
      At line 402 in file MKL05Z4.s
   Uses



ARM Macro Assembler    Page 28 Alphabetic symbol ordering
Absolute symbols

      At line 412 in file MKL05Z4.s
      At line 420 in file MKL05Z4.s

FPT_PDOR_OFFSET 00000000

Symbol: FPT_PDOR_OFFSET
   Definitions
      At line 398 in file MKL05Z4.s
   Uses
      At line 409 in file MKL05Z4.s
      At line 416 in file MKL05Z4.s

FPT_PSOR_OFFSET 00000004

Symbol: FPT_PSOR_OFFSET
   Definitions
      At line 399 in file MKL05Z4.s
   Uses
      At line 408 in file MKL05Z4.s
      At line 417 in file MKL05Z4.s

FPT_PTOR_OFFSET 0000000C

Symbol: FPT_PTOR_OFFSET
   Definitions
      At line 401 in file MKL05Z4.s
   Uses
      At line 411 in file MKL05Z4.s
      At line 419 in file MKL05Z4.s

FSEC 000000FE

Symbol: FSEC
   Definitions
      At line 340 in file MKL05Z4.s
   Uses
      None
Comment: FSEC unused
FTFA_FlashConfig_BACKKEY0 00000403

Symbol: FTFA_FlashConfig_BACKKEY0
   Definitions



ARM Macro Assembler    Page 29 Alphabetic symbol ordering
Absolute symbols

      At line 444 in file MKL05Z4.s
   Uses
      None
Comment: FTFA_FlashConfig_BACKKEY0 unused
FTFA_FlashConfig_BACKKEY0_KEY_MASK 000000FF

Symbol: FTFA_FlashConfig_BACKKEY0_KEY_MASK
   Definitions
      At line 469 in file MKL05Z4.s
   Uses
      None
Comment: FTFA_FlashConfig_BACKKEY0_KEY_MASK unused
FTFA_FlashConfig_BACKKEY0_KEY_SHIFT 00000000

Symbol: FTFA_FlashConfig_BACKKEY0_KEY_SHIFT
   Definitions
      At line 470 in file MKL05Z4.s
   Uses
      None
Comment: FTFA_FlashConfig_BACKKEY0_KEY_SHIFT unused
FTFA_FlashConfig_BACKKEY0_OFFSET 00000003

Symbol: FTFA_FlashConfig_BACKKEY0_OFFSET
   Definitions
      At line 430 in file MKL05Z4.s
   Uses
      At line 444 in file MKL05Z4.s
Comment: FTFA_FlashConfig_BACKKEY0_OFFSET used once
FTFA_FlashConfig_BACKKEY1 00000402

Symbol: FTFA_FlashConfig_BACKKEY1
   Definitions
      At line 443 in file MKL05Z4.s
   Uses
      None
Comment: FTFA_FlashConfig_BACKKEY1 unused
FTFA_FlashConfig_BACKKEY1_KEY_MASK 000000FF

Symbol: FTFA_FlashConfig_BACKKEY1_KEY_MASK
   Definitions
      At line 465 in file MKL05Z4.s
   Uses



ARM Macro Assembler    Page 30 Alphabetic symbol ordering
Absolute symbols

      None
Comment: FTFA_FlashConfig_BACKKEY1_KEY_MASK unused
FTFA_FlashConfig_BACKKEY1_KEY_SHIFT 00000000

Symbol: FTFA_FlashConfig_BACKKEY1_KEY_SHIFT
   Definitions
      At line 466 in file MKL05Z4.s
   Uses
      None
Comment: FTFA_FlashConfig_BACKKEY1_KEY_SHIFT unused
FTFA_FlashConfig_BACKKEY1_OFFSET 00000002

Symbol: FTFA_FlashConfig_BACKKEY1_OFFSET
   Definitions
      At line 429 in file MKL05Z4.s
   Uses
      At line 443 in file MKL05Z4.s
Comment: FTFA_FlashConfig_BACKKEY1_OFFSET used once
FTFA_FlashConfig_BACKKEY2 00000401

Symbol: FTFA_FlashConfig_BACKKEY2
   Definitions
      At line 442 in file MKL05Z4.s
   Uses
      None
Comment: FTFA_FlashConfig_BACKKEY2 unused
FTFA_FlashConfig_BACKKEY2_KEY_MASK 000000FF

Symbol: FTFA_FlashConfig_BACKKEY2_KEY_MASK
   Definitions
      At line 461 in file MKL05Z4.s
   Uses
      None
Comment: FTFA_FlashConfig_BACKKEY2_KEY_MASK unused
FTFA_FlashConfig_BACKKEY2_KEY_SHIFT 00000000

Symbol: FTFA_FlashConfig_BACKKEY2_KEY_SHIFT
   Definitions
      At line 462 in file MKL05Z4.s
   Uses
      None
Comment: FTFA_FlashConfig_BACKKEY2_KEY_SHIFT unused



ARM Macro Assembler    Page 31 Alphabetic symbol ordering
Absolute symbols

FTFA_FlashConfig_BACKKEY2_OFFSET 00000001

Symbol: FTFA_FlashConfig_BACKKEY2_OFFSET
   Definitions
      At line 428 in file MKL05Z4.s
   Uses
      At line 442 in file MKL05Z4.s
Comment: FTFA_FlashConfig_BACKKEY2_OFFSET used once
FTFA_FlashConfig_BACKKEY3 00000400

Symbol: FTFA_FlashConfig_BACKKEY3
   Definitions
      At line 441 in file MKL05Z4.s
   Uses
      None
Comment: FTFA_FlashConfig_BACKKEY3 unused
FTFA_FlashConfig_BACKKEY3_KEY_MASK 000000FF

Symbol: FTFA_FlashConfig_BACKKEY3_KEY_MASK
   Definitions
      At line 457 in file MKL05Z4.s
   Uses
      None
Comment: FTFA_FlashConfig_BACKKEY3_KEY_MASK unused
FTFA_FlashConfig_BACKKEY3_KEY_SHIFT 00000000

Symbol: FTFA_FlashConfig_BACKKEY3_KEY_SHIFT
   Definitions
      At line 458 in file MKL05Z4.s
   Uses
      None
Comment: FTFA_FlashConfig_BACKKEY3_KEY_SHIFT unused
FTFA_FlashConfig_BACKKEY3_OFFSET 00000000

Symbol: FTFA_FlashConfig_BACKKEY3_OFFSET
   Definitions
      At line 427 in file MKL05Z4.s
   Uses
      At line 441 in file MKL05Z4.s
Comment: FTFA_FlashConfig_BACKKEY3_OFFSET used once
FTFA_FlashConfig_BACKKEY4 00000407




ARM Macro Assembler    Page 32 Alphabetic symbol ordering
Absolute symbols

Symbol: FTFA_FlashConfig_BACKKEY4
   Definitions
      At line 448 in file MKL05Z4.s
   Uses
      None
Comment: FTFA_FlashConfig_BACKKEY4 unused
FTFA_FlashConfig_BACKKEY4_KEY_MASK 000000FF

Symbol: FTFA_FlashConfig_BACKKEY4_KEY_MASK
   Definitions
      At line 485 in file MKL05Z4.s
   Uses
      None
Comment: FTFA_FlashConfig_BACKKEY4_KEY_MASK unused
FTFA_FlashConfig_BACKKEY4_KEY_SHIFT 00000000

Symbol: FTFA_FlashConfig_BACKKEY4_KEY_SHIFT
   Definitions
      At line 486 in file MKL05Z4.s
   Uses
      None
Comment: FTFA_FlashConfig_BACKKEY4_KEY_SHIFT unused
FTFA_FlashConfig_BACKKEY4_OFFSET 00000007

Symbol: FTFA_FlashConfig_BACKKEY4_OFFSET
   Definitions
      At line 434 in file MKL05Z4.s
   Uses
      At line 448 in file MKL05Z4.s
Comment: FTFA_FlashConfig_BACKKEY4_OFFSET used once
FTFA_FlashConfig_BACKKEY5 00000406

Symbol: FTFA_FlashConfig_BACKKEY5
   Definitions
      At line 447 in file MKL05Z4.s
   Uses
      None
Comment: FTFA_FlashConfig_BACKKEY5 unused
FTFA_FlashConfig_BACKKEY5_KEY_MASK 000000FF

Symbol: FTFA_FlashConfig_BACKKEY5_KEY_MASK
   Definitions



ARM Macro Assembler    Page 33 Alphabetic symbol ordering
Absolute symbols

      At line 481 in file MKL05Z4.s
   Uses
      None
Comment: FTFA_FlashConfig_BACKKEY5_KEY_MASK unused
FTFA_FlashConfig_BACKKEY5_KEY_SHIFT 00000000

Symbol: FTFA_FlashConfig_BACKKEY5_KEY_SHIFT
   Definitions
      At line 482 in file MKL05Z4.s
   Uses
      None
Comment: FTFA_FlashConfig_BACKKEY5_KEY_SHIFT unused
FTFA_FlashConfig_BACKKEY5_OFFSET 00000006

Symbol: FTFA_FlashConfig_BACKKEY5_OFFSET
   Definitions
      At line 433 in file MKL05Z4.s
   Uses
      At line 447 in file MKL05Z4.s
Comment: FTFA_FlashConfig_BACKKEY5_OFFSET used once
FTFA_FlashConfig_BACKKEY6 00000405

Symbol: FTFA_FlashConfig_BACKKEY6
   Definitions
      At line 446 in file MKL05Z4.s
   Uses
      None
Comment: FTFA_FlashConfig_BACKKEY6 unused
FTFA_FlashConfig_BACKKEY6_KEY_MASK 000000FF

Symbol: FTFA_FlashConfig_BACKKEY6_KEY_MASK
   Definitions
      At line 477 in file MKL05Z4.s
   Uses
      None
Comment: FTFA_FlashConfig_BACKKEY6_KEY_MASK unused
FTFA_FlashConfig_BACKKEY6_KEY_SHIFT 00000000

Symbol: FTFA_FlashConfig_BACKKEY6_KEY_SHIFT
   Definitions
      At line 478 in file MKL05Z4.s
   Uses



ARM Macro Assembler    Page 34 Alphabetic symbol ordering
Absolute symbols

      None
Comment: FTFA_FlashConfig_BACKKEY6_KEY_SHIFT unused
FTFA_FlashConfig_BACKKEY6_OFFSET 00000005

Symbol: FTFA_FlashConfig_BACKKEY6_OFFSET
   Definitions
      At line 432 in file MKL05Z4.s
   Uses
      At line 446 in file MKL05Z4.s
Comment: FTFA_FlashConfig_BACKKEY6_OFFSET used once
FTFA_FlashConfig_BACKKEY7 00000404

Symbol: FTFA_FlashConfig_BACKKEY7
   Definitions
      At line 445 in file MKL05Z4.s
   Uses
      None
Comment: FTFA_FlashConfig_BACKKEY7 unused
FTFA_FlashConfig_BACKKEY7_KEY_MASK 000000FF

Symbol: FTFA_FlashConfig_BACKKEY7_KEY_MASK
   Definitions
      At line 473 in file MKL05Z4.s
   Uses
      None
Comment: FTFA_FlashConfig_BACKKEY7_KEY_MASK unused
FTFA_FlashConfig_BACKKEY7_KEY_SHIFT 00000000

Symbol: FTFA_FlashConfig_BACKKEY7_KEY_SHIFT
   Definitions
      At line 474 in file MKL05Z4.s
   Uses
      None
Comment: FTFA_FlashConfig_BACKKEY7_KEY_SHIFT unused
FTFA_FlashConfig_BACKKEY7_OFFSET 00000004

Symbol: FTFA_FlashConfig_BACKKEY7_OFFSET
   Definitions
      At line 431 in file MKL05Z4.s
   Uses
      At line 445 in file MKL05Z4.s
Comment: FTFA_FlashConfig_BACKKEY7_OFFSET used once



ARM Macro Assembler    Page 35 Alphabetic symbol ordering
Absolute symbols

FTFA_FlashConfig_BASE 00000400

Symbol: FTFA_FlashConfig_BASE
   Definitions
      At line 426 in file MKL05Z4.s
   Uses
      At line 441 in file MKL05Z4.s
      At line 442 in file MKL05Z4.s
      At line 443 in file MKL05Z4.s
      At line 444 in file MKL05Z4.s
      At line 445 in file MKL05Z4.s
      At line 446 in file MKL05Z4.s
      At line 447 in file MKL05Z4.s
      At line 448 in file MKL05Z4.s
      At line 449 in file MKL05Z4.s
      At line 450 in file MKL05Z4.s
      At line 451 in file MKL05Z4.s
      At line 452 in file MKL05Z4.s
      At line 453 in file MKL05Z4.s
      At line 454 in file MKL05Z4.s

FTFA_FlashConfig_FOPT 0000040D

Symbol: FTFA_FlashConfig_FOPT
   Definitions
      At line 454 in file MKL05Z4.s
   Uses
      None
Comment: FTFA_FlashConfig_FOPT unused
FTFA_FlashConfig_FOPT_FAST_INIT_MASK 00000020

Symbol: FTFA_FlashConfig_FOPT_FAST_INIT_MASK
   Definitions
      At line 535 in file MKL05Z4.s
   Uses
      None
Comment: FTFA_FlashConfig_FOPT_FAST_INIT_MASK unused
FTFA_FlashConfig_FOPT_FAST_INIT_SHIFT 00000005

Symbol: FTFA_FlashConfig_FOPT_FAST_INIT_SHIFT
   Definitions
      At line 536 in file MKL05Z4.s



ARM Macro Assembler    Page 36 Alphabetic symbol ordering
Absolute symbols

   Uses
      None
Comment: FTFA_FlashConfig_FOPT_FAST_INIT_SHIFT unused
FTFA_FlashConfig_FOPT_LPBOOT0_MASK 00000001

Symbol: FTFA_FlashConfig_FOPT_LPBOOT0_MASK
   Definitions
      At line 527 in file MKL05Z4.s
   Uses
      None
Comment: FTFA_FlashConfig_FOPT_LPBOOT0_MASK unused
FTFA_FlashConfig_FOPT_LPBOOT0_SHIFT 00000000

Symbol: FTFA_FlashConfig_FOPT_LPBOOT0_SHIFT
   Definitions
      At line 528 in file MKL05Z4.s
   Uses
      None
Comment: FTFA_FlashConfig_FOPT_LPBOOT0_SHIFT unused
FTFA_FlashConfig_FOPT_LPBOOT1_MASK 00000010

Symbol: FTFA_FlashConfig_FOPT_LPBOOT1_MASK
   Definitions
      At line 533 in file MKL05Z4.s
   Uses
      None
Comment: FTFA_FlashConfig_FOPT_LPBOOT1_MASK unused
FTFA_FlashConfig_FOPT_LPBOOT1_SHIFT 00000004

Symbol: FTFA_FlashConfig_FOPT_LPBOOT1_SHIFT
   Definitions
      At line 534 in file MKL05Z4.s
   Uses
      None
Comment: FTFA_FlashConfig_FOPT_LPBOOT1_SHIFT unused
FTFA_FlashConfig_FOPT_NMI_DIS_MASK 00000004

Symbol: FTFA_FlashConfig_FOPT_NMI_DIS_MASK
   Definitions
      At line 529 in file MKL05Z4.s
   Uses
      None



ARM Macro Assembler    Page 37 Alphabetic symbol ordering
Absolute symbols

Comment: FTFA_FlashConfig_FOPT_NMI_DIS_MASK unused
FTFA_FlashConfig_FOPT_NMI_DIS_SHIFT 00000002

Symbol: FTFA_FlashConfig_FOPT_NMI_DIS_SHIFT
   Definitions
      At line 530 in file MKL05Z4.s
   Uses
      None
Comment: FTFA_FlashConfig_FOPT_NMI_DIS_SHIFT unused
FTFA_FlashConfig_FOPT_OFFSET 0000000D

Symbol: FTFA_FlashConfig_FOPT_OFFSET
   Definitions
      At line 440 in file MKL05Z4.s
   Uses
      At line 454 in file MKL05Z4.s
Comment: FTFA_FlashConfig_FOPT_OFFSET used once
FTFA_FlashConfig_FOPT_RESET_PIN_CFG_MASK 00000008

Symbol: FTFA_FlashConfig_FOPT_RESET_PIN_CFG_MASK
   Definitions
      At line 531 in file MKL05Z4.s
   Uses
      None
Comment: FTFA_FlashConfig_FOPT_RESET_PIN_CFG_MASK unused
FTFA_FlashConfig_FOPT_RESET_PIN_CFG_SHIFT 00000003

Symbol: FTFA_FlashConfig_FOPT_RESET_PIN_CFG_SHIFT
   Definitions
      At line 532 in file MKL05Z4.s
   Uses
      None
Comment: FTFA_FlashConfig_FOPT_RESET_PIN_CFG_SHIFT unused
FTFA_FlashConfig_FPROT0 0000040B

Symbol: FTFA_FlashConfig_FPROT0
   Definitions
      At line 452 in file MKL05Z4.s
   Uses
      None
Comment: FTFA_FlashConfig_FPROT0 unused
FTFA_FlashConfig_FPROT0_OFFSET 0000000B



ARM Macro Assembler    Page 38 Alphabetic symbol ordering
Absolute symbols


Symbol: FTFA_FlashConfig_FPROT0_OFFSET
   Definitions
      At line 438 in file MKL05Z4.s
   Uses
      At line 452 in file MKL05Z4.s
Comment: FTFA_FlashConfig_FPROT0_OFFSET used once
FTFA_FlashConfig_FPROT0_PROT_MASK 000000FF

Symbol: FTFA_FlashConfig_FPROT0_PROT_MASK
   Definitions
      At line 501 in file MKL05Z4.s
   Uses
      None
Comment: FTFA_FlashConfig_FPROT0_PROT_MASK unused
FTFA_FlashConfig_FPROT0_PROT_SHIFT 00000000

Symbol: FTFA_FlashConfig_FPROT0_PROT_SHIFT
   Definitions
      At line 502 in file MKL05Z4.s
   Uses
      None
Comment: FTFA_FlashConfig_FPROT0_PROT_SHIFT unused
FTFA_FlashConfig_FPROT1 0000040A

Symbol: FTFA_FlashConfig_FPROT1
   Definitions
      At line 451 in file MKL05Z4.s
   Uses
      None
Comment: FTFA_FlashConfig_FPROT1 unused
FTFA_FlashConfig_FPROT1_OFFSET 0000000A

Symbol: FTFA_FlashConfig_FPROT1_OFFSET
   Definitions
      At line 437 in file MKL05Z4.s
   Uses
      At line 451 in file MKL05Z4.s
Comment: FTFA_FlashConfig_FPROT1_OFFSET used once
FTFA_FlashConfig_FPROT1_PROT_MASK 000000FF

Symbol: FTFA_FlashConfig_FPROT1_PROT_MASK



ARM Macro Assembler    Page 39 Alphabetic symbol ordering
Absolute symbols

   Definitions
      At line 497 in file MKL05Z4.s
   Uses
      None
Comment: FTFA_FlashConfig_FPROT1_PROT_MASK unused
FTFA_FlashConfig_FPROT1_PROT_SHIFT 00000000

Symbol: FTFA_FlashConfig_FPROT1_PROT_SHIFT
   Definitions
      At line 498 in file MKL05Z4.s
   Uses
      None
Comment: FTFA_FlashConfig_FPROT1_PROT_SHIFT unused
FTFA_FlashConfig_FPROT2 00000409

Symbol: FTFA_FlashConfig_FPROT2
   Definitions
      At line 450 in file MKL05Z4.s
   Uses
      None
Comment: FTFA_FlashConfig_FPROT2 unused
FTFA_FlashConfig_FPROT2_OFFSET 00000009

Symbol: FTFA_FlashConfig_FPROT2_OFFSET
   Definitions
      At line 436 in file MKL05Z4.s
   Uses
      At line 450 in file MKL05Z4.s
Comment: FTFA_FlashConfig_FPROT2_OFFSET used once
FTFA_FlashConfig_FPROT2_PROT_MASK 000000FF

Symbol: FTFA_FlashConfig_FPROT2_PROT_MASK
   Definitions
      At line 493 in file MKL05Z4.s
   Uses
      None
Comment: FTFA_FlashConfig_FPROT2_PROT_MASK unused
FTFA_FlashConfig_FPROT2_PROT_SHIFT 00000000

Symbol: FTFA_FlashConfig_FPROT2_PROT_SHIFT
   Definitions
      At line 494 in file MKL05Z4.s



ARM Macro Assembler    Page 40 Alphabetic symbol ordering
Absolute symbols

   Uses
      None
Comment: FTFA_FlashConfig_FPROT2_PROT_SHIFT unused
FTFA_FlashConfig_FPROT3 00000408

Symbol: FTFA_FlashConfig_FPROT3
   Definitions
      At line 449 in file MKL05Z4.s
   Uses
      None
Comment: FTFA_FlashConfig_FPROT3 unused
FTFA_FlashConfig_FPROT3_OFFSET 00000008

Symbol: FTFA_FlashConfig_FPROT3_OFFSET
   Definitions
      At line 435 in file MKL05Z4.s
   Uses
      At line 449 in file MKL05Z4.s
Comment: FTFA_FlashConfig_FPROT3_OFFSET used once
FTFA_FlashConfig_FPROT3_PROT_MASK 000000FF

Symbol: FTFA_FlashConfig_FPROT3_PROT_MASK
   Definitions
      At line 489 in file MKL05Z4.s
   Uses
      None
Comment: FTFA_FlashConfig_FPROT3_PROT_MASK unused
FTFA_FlashConfig_FPROT3_PROT_SHIFT 00000000

Symbol: FTFA_FlashConfig_FPROT3_PROT_SHIFT
   Definitions
      At line 490 in file MKL05Z4.s
   Uses
      None
Comment: FTFA_FlashConfig_FPROT3_PROT_SHIFT unused
FTFA_FlashConfig_FSEC 0000040C

Symbol: FTFA_FlashConfig_FSEC
   Definitions
      At line 453 in file MKL05Z4.s
   Uses
      None



ARM Macro Assembler    Page 41 Alphabetic symbol ordering
Absolute symbols

Comment: FTFA_FlashConfig_FSEC unused
FTFA_FlashConfig_FSEC_FSLACC_MASK 0000000C

Symbol: FTFA_FlashConfig_FSEC_FSLACC_MASK
   Definitions
      At line 519 in file MKL05Z4.s
   Uses
      None
Comment: FTFA_FlashConfig_FSEC_FSLACC_MASK unused
FTFA_FlashConfig_FSEC_FSLACC_SHIFT 00000002

Symbol: FTFA_FlashConfig_FSEC_FSLACC_SHIFT
   Definitions
      At line 520 in file MKL05Z4.s
   Uses
      None
Comment: FTFA_FlashConfig_FSEC_FSLACC_SHIFT unused
FTFA_FlashConfig_FSEC_KEYEN_MASK 000000C0

Symbol: FTFA_FlashConfig_FSEC_KEYEN_MASK
   Definitions
      At line 523 in file MKL05Z4.s
   Uses
      None
Comment: FTFA_FlashConfig_FSEC_KEYEN_MASK unused
FTFA_FlashConfig_FSEC_KEYEN_SHIFT 00000006

Symbol: FTFA_FlashConfig_FSEC_KEYEN_SHIFT
   Definitions
      At line 524 in file MKL05Z4.s
   Uses
      None
Comment: FTFA_FlashConfig_FSEC_KEYEN_SHIFT unused
FTFA_FlashConfig_FSEC_MEEN_MASK 00000030

Symbol: FTFA_FlashConfig_FSEC_MEEN_MASK
   Definitions
      At line 521 in file MKL05Z4.s
   Uses
      None
Comment: FTFA_FlashConfig_FSEC_MEEN_MASK unused
FTFA_FlashConfig_FSEC_MEEN_SHIFT 00000004



ARM Macro Assembler    Page 42 Alphabetic symbol ordering
Absolute symbols


Symbol: FTFA_FlashConfig_FSEC_MEEN_SHIFT
   Definitions
      At line 522 in file MKL05Z4.s
   Uses
      None
Comment: FTFA_FlashConfig_FSEC_MEEN_SHIFT unused
FTFA_FlashConfig_FSEC_OFFSET 0000000C

Symbol: FTFA_FlashConfig_FSEC_OFFSET
   Definitions
      At line 439 in file MKL05Z4.s
   Uses
      At line 453 in file MKL05Z4.s
Comment: FTFA_FlashConfig_FSEC_OFFSET used once
FTFA_FlashConfig_FSEC_SEC_MASK 00000003

Symbol: FTFA_FlashConfig_FSEC_SEC_MASK
   Definitions
      At line 517 in file MKL05Z4.s
   Uses
      None
Comment: FTFA_FlashConfig_FSEC_SEC_MASK unused
FTFA_FlashConfig_FSEC_SEC_SHIFT 00000000

Symbol: FTFA_FlashConfig_FSEC_SEC_SHIFT
   Definitions
      At line 518 in file MKL05Z4.s
   Uses
      None
Comment: FTFA_FlashConfig_FSEC_SEC_SHIFT unused
FTFA_IPR E000E404

Symbol: FTFA_IPR
   Definitions
      At line 919 in file MKL05Z4.s
   Uses
      None
Comment: FTFA_IPR unused
FTFA_IRQ_MASK 00000020

Symbol: FTFA_IRQ_MASK



ARM Macro Assembler    Page 43 Alphabetic symbol ordering
Absolute symbols

   Definitions
      At line 989 in file MKL05Z4.s
   Uses
      None
Comment: FTFA_IRQ_MASK unused
FTFA_IRQn 00000005

Symbol: FTFA_IRQn
   Definitions
      At line 168 in file MKL05Z4.s
   Uses
      At line 989 in file MKL05Z4.s
Comment: FTFA_IRQn used once
FTFA_PRI_POS 0000000E

Symbol: FTFA_PRI_POS
   Definitions
      At line 955 in file MKL05Z4.s
   Uses
      None
Comment: FTFA_PRI_POS unused
FTFA_Vector 00000015

Symbol: FTFA_Vector
   Definitions
      At line 1040 in file MKL05Z4.s
   Uses
      None
Comment: FTFA_Vector unused
GPIOA_BASE 400FF000

Symbol: GPIOA_BASE
   Definitions
      At line 564 in file MKL05Z4.s
   Uses
      At line 565 in file MKL05Z4.s
      At line 566 in file MKL05Z4.s
      At line 567 in file MKL05Z4.s
      At line 568 in file MKL05Z4.s
      At line 569 in file MKL05Z4.s
      At line 570 in file MKL05Z4.s




ARM Macro Assembler    Page 44 Alphabetic symbol ordering
Absolute symbols

GPIOA_OFFSET 00000000

Symbol: GPIOA_OFFSET
   Definitions
      At line 561 in file MKL05Z4.s
   Uses
      None
Comment: GPIOA_OFFSET unused
GPIOA_PCOR 400FF008

Symbol: GPIOA_PCOR
   Definitions
      At line 567 in file MKL05Z4.s
   Uses
      None
Comment: GPIOA_PCOR unused
GPIOA_PDDR 400FF014

Symbol: GPIOA_PDDR
   Definitions
      At line 570 in file MKL05Z4.s
   Uses
      None
Comment: GPIOA_PDDR unused
GPIOA_PDIR 400FF010

Symbol: GPIOA_PDIR
   Definitions
      At line 569 in file MKL05Z4.s
   Uses
      None
Comment: GPIOA_PDIR unused
GPIOA_PDOR 400FF000

Symbol: GPIOA_PDOR
   Definitions
      At line 565 in file MKL05Z4.s
   Uses
      None
Comment: GPIOA_PDOR unused
GPIOA_PSOR 400FF004




ARM Macro Assembler    Page 45 Alphabetic symbol ordering
Absolute symbols

Symbol: GPIOA_PSOR
   Definitions
      At line 566 in file MKL05Z4.s
   Uses
      None
Comment: GPIOA_PSOR unused
GPIOA_PTOR 400FF00C

Symbol: GPIOA_PTOR
   Definitions
      At line 568 in file MKL05Z4.s
   Uses
      None
Comment: GPIOA_PTOR unused
GPIOB_BASE 400FF040

Symbol: GPIOB_BASE
   Definitions
      At line 572 in file MKL05Z4.s
   Uses
      At line 573 in file MKL05Z4.s
      At line 574 in file MKL05Z4.s
      At line 575 in file MKL05Z4.s
      At line 576 in file MKL05Z4.s
      At line 577 in file MKL05Z4.s
      At line 578 in file MKL05Z4.s

GPIOB_OFFSET 00000040

Symbol: GPIOB_OFFSET
   Definitions
      At line 562 in file MKL05Z4.s
   Uses
      None
Comment: GPIOB_OFFSET unused
GPIOB_PCOR 400FF048

Symbol: GPIOB_PCOR
   Definitions
      At line 575 in file MKL05Z4.s
   Uses
      None



ARM Macro Assembler    Page 46 Alphabetic symbol ordering
Absolute symbols

Comment: GPIOB_PCOR unused
GPIOB_PDDR 400FF054

Symbol: GPIOB_PDDR
   Definitions
      At line 578 in file MKL05Z4.s
   Uses
      None
Comment: GPIOB_PDDR unused
GPIOB_PDIR 400FF050

Symbol: GPIOB_PDIR
   Definitions
      At line 577 in file MKL05Z4.s
   Uses
      None
Comment: GPIOB_PDIR unused
GPIOB_PDOR 400FF040

Symbol: GPIOB_PDOR
   Definitions
      At line 573 in file MKL05Z4.s
   Uses
      None
Comment: GPIOB_PDOR unused
GPIOB_PSOR 400FF044

Symbol: GPIOB_PSOR
   Definitions
      At line 574 in file MKL05Z4.s
   Uses
      None
Comment: GPIOB_PSOR unused
GPIOB_PTOR 400FF04C

Symbol: GPIOB_PTOR
   Definitions
      At line 576 in file MKL05Z4.s
   Uses
      None
Comment: GPIOB_PTOR unused
GPIO_BASE 400FF000



ARM Macro Assembler    Page 47 Alphabetic symbol ordering
Absolute symbols


Symbol: GPIO_BASE
   Definitions
      At line 552 in file MKL05Z4.s
   Uses
      None
Comment: GPIO_BASE unused
GPIO_PCOR_OFFSET 00000008

Symbol: GPIO_PCOR_OFFSET
   Definitions
      At line 555 in file MKL05Z4.s
   Uses
      At line 369 in file MKL05Z4.s
      At line 377 in file MKL05Z4.s
      At line 567 in file MKL05Z4.s
      At line 575 in file MKL05Z4.s

GPIO_PDDR_OFFSET 00000014

Symbol: GPIO_PDDR_OFFSET
   Definitions
      At line 558 in file MKL05Z4.s
   Uses
      At line 372 in file MKL05Z4.s
      At line 380 in file MKL05Z4.s
      At line 570 in file MKL05Z4.s
      At line 578 in file MKL05Z4.s

GPIO_PDIR_OFFSET 00000010

Symbol: GPIO_PDIR_OFFSET
   Definitions
      At line 557 in file MKL05Z4.s
   Uses
      At line 371 in file MKL05Z4.s
      At line 379 in file MKL05Z4.s
      At line 569 in file MKL05Z4.s
      At line 577 in file MKL05Z4.s

GPIO_PDOR_OFFSET 00000000




ARM Macro Assembler    Page 48 Alphabetic symbol ordering
Absolute symbols

Symbol: GPIO_PDOR_OFFSET
   Definitions
      At line 553 in file MKL05Z4.s
   Uses
      At line 367 in file MKL05Z4.s
      At line 375 in file MKL05Z4.s
      At line 565 in file MKL05Z4.s
      At line 573 in file MKL05Z4.s

GPIO_PSOR_OFFSET 00000004

Symbol: GPIO_PSOR_OFFSET
   Definitions
      At line 554 in file MKL05Z4.s
   Uses
      At line 368 in file MKL05Z4.s
      At line 376 in file MKL05Z4.s
      At line 566 in file MKL05Z4.s
      At line 574 in file MKL05Z4.s

GPIO_PTOR_OFFSET 0000000C

Symbol: GPIO_PTOR_OFFSET
   Definitions
      At line 556 in file MKL05Z4.s
   Uses
      At line 370 in file MKL05Z4.s
      At line 378 in file MKL05Z4.s
      At line 568 in file MKL05Z4.s
      At line 576 in file MKL05Z4.s

HALFWORD_MASK 0000FFFF

Symbol: HALFWORD_MASK
   Definitions
      At line 42 in file MKL05Z4.s
   Uses
      None
Comment: HALFWORD_MASK unused
HALFWORD_SIZE 00000002

Symbol: HALFWORD_SIZE



ARM Macro Assembler    Page 49 Alphabetic symbol ordering
Absolute symbols

   Definitions
      At line 40 in file MKL05Z4.s
   Uses
      None
Comment: HALFWORD_SIZE unused
HardFault_IRQn FFFFFFF3

Symbol: HardFault_IRQn
   Definitions
      At line 156 in file MKL05Z4.s
   Uses
      None
Comment: HardFault_IRQn unused
Hard_Fault_Vector 00000003

Symbol: Hard_Fault_Vector
   Definitions
      At line 1021 in file MKL05Z4.s
   Uses
      None
Comment: Hard_Fault_Vector unused
I2C0_IPR E000E408

Symbol: I2C0_IPR
   Definitions
      At line 922 in file MKL05Z4.s
   Uses
      None
Comment: I2C0_IPR unused
I2C0_IRQ_MASK 00000100

Symbol: I2C0_IRQ_MASK
   Definitions
      At line 992 in file MKL05Z4.s
   Uses
      None
Comment: I2C0_IRQ_MASK unused
I2C0_IRQn 00000008

Symbol: I2C0_IRQn
   Definitions
      At line 171 in file MKL05Z4.s



ARM Macro Assembler    Page 50 Alphabetic symbol ordering
Absolute symbols

   Uses
      At line 992 in file MKL05Z4.s
Comment: I2C0_IRQn used once
I2C0_PRI_POS 00000006

Symbol: I2C0_PRI_POS
   Definitions
      At line 958 in file MKL05Z4.s
   Uses
      None
Comment: I2C0_PRI_POS unused
I2C0_Vector 00000018

Symbol: I2C0_Vector
   Definitions
      At line 1043 in file MKL05Z4.s
   Uses
      None
Comment: I2C0_Vector unused
IN_PTR 00000000

Symbol: IN_PTR
   Definitions
      At line 27 in file lab10.s
   Uses
      At line 735 in file lab10.s
      At line 870 in file lab10.s
      At line 879 in file lab10.s
      At line 889 in file lab10.s
      At line 907 in file lab10.s

IPSR_EXCEPTION_MASK 0000003F

Symbol: IPSR_EXCEPTION_MASK
   Definitions
      At line 122 in file MKL05Z4.s
   Uses
      At line 135 in file MKL05Z4.s
Comment: IPSR_EXCEPTION_MASK used once
IPSR_EXCEPTION_SHIFT 00000000

Symbol: IPSR_EXCEPTION_SHIFT



ARM Macro Assembler    Page 51 Alphabetic symbol ordering
Absolute symbols

   Definitions
      At line 123 in file MKL05Z4.s
   Uses
      At line 136 in file MKL05Z4.s
Comment: IPSR_EXCEPTION_SHIFT used once
IPSR_MASK 0000003F

Symbol: IPSR_MASK
   Definitions
      At line 120 in file MKL05Z4.s
   Uses
      None
Comment: IPSR_MASK unused
IPSR_SHIFT 00000000

Symbol: IPSR_SHIFT
   Definitions
      At line 121 in file MKL05Z4.s
   Uses
      None
Comment: IPSR_SHIFT unused
Init_SP_Vector 00000000

Symbol: Init_SP_Vector
   Definitions
      At line 1018 in file MKL05Z4.s
   Uses
      None
Comment: Init_SP_Vector unused
LF 0000000A

Symbol: LF
   Definitions
      At line 48 in file lab10.s
   Uses
      At line 1391 in file lab10.s
Comment: LF used once
LLW_IPR E000E404

Symbol: LLW_IPR
   Definitions
      At line 921 in file MKL05Z4.s



ARM Macro Assembler    Page 52 Alphabetic symbol ordering
Absolute symbols

   Uses
      None
Comment: LLW_IPR unused
LLW_IRQ_MASK 00000080

Symbol: LLW_IRQ_MASK
   Definitions
      At line 991 in file MKL05Z4.s
   Uses
      None
Comment: LLW_IRQ_MASK unused
LLW_IRQn 00000007

Symbol: LLW_IRQn
   Definitions
      At line 170 in file MKL05Z4.s
   Uses
      At line 991 in file MKL05Z4.s
Comment: LLW_IRQn used once
LLW_PRI_POS 0000001E

Symbol: LLW_PRI_POS
   Definitions
      At line 957 in file MKL05Z4.s
   Uses
      None
Comment: LLW_PRI_POS unused
LLW_Vector 00000017

Symbol: LLW_Vector
   Definitions
      At line 1042 in file MKL05Z4.s
   Uses
      None
Comment: LLW_Vector unused
LPTimer_IPR E000E41C

Symbol: LPTimer_IPR
   Definitions
      At line 942 in file MKL05Z4.s
   Uses
      None



ARM Macro Assembler    Page 53 Alphabetic symbol ordering
Absolute symbols

Comment: LPTimer_IPR unused
LPTimer_IRQ_MASK 10000000

Symbol: LPTimer_IRQ_MASK
   Definitions
      At line 1012 in file MKL05Z4.s
   Uses
      None
Comment: LPTimer_IRQ_MASK unused
LPTimer_IRQn 0000001C

Symbol: LPTimer_IRQn
   Definitions
      At line 191 in file MKL05Z4.s
   Uses
      At line 1012 in file MKL05Z4.s
Comment: LPTimer_IRQn used once
LPTimer_PRI_POS 00000006

Symbol: LPTimer_PRI_POS
   Definitions
      At line 978 in file MKL05Z4.s
   Uses
      None
Comment: LPTimer_PRI_POS unused
LPTimer_Vector 0000002C

Symbol: LPTimer_Vector
   Definitions
      At line 1063 in file MKL05Z4.s
   Uses
      None
Comment: LPTimer_Vector unused
LVD_LVW_IPR E000E404

Symbol: LVD_LVW_IPR
   Definitions
      At line 920 in file MKL05Z4.s
   Uses
      None
Comment: LVD_LVW_IPR unused
LVD_LVW_IRQ_MASK 00000040



ARM Macro Assembler    Page 54 Alphabetic symbol ordering
Absolute symbols


Symbol: LVD_LVW_IRQ_MASK
   Definitions
      At line 990 in file MKL05Z4.s
   Uses
      None
Comment: LVD_LVW_IRQ_MASK unused
LVD_LVW_IRQn 00000006

Symbol: LVD_LVW_IRQn
   Definitions
      At line 169 in file MKL05Z4.s
   Uses
      At line 990 in file MKL05Z4.s
Comment: LVD_LVW_IRQn used once
LVD_LVW_PRI_POS 00000016

Symbol: LVD_LVW_PRI_POS
   Definitions
      At line 956 in file MKL05Z4.s
   Uses
      None
Comment: LVD_LVW_PRI_POS unused
LVD_LVW_Vector 00000016

Symbol: LVD_LVW_Vector
   Definitions
      At line 1041 in file MKL05Z4.s
   Uses
      None
Comment: LVD_LVW_Vector unused
MAX_STRING 0000004F

Symbol: MAX_STRING
   Definitions
      At line 44 in file lab10.s
   Uses
      At line 284 in file lab10.s
      At line 301 in file lab10.s
      At line 328 in file lab10.s
      At line 345 in file lab10.s
      At line 371 in file lab10.s



ARM Macro Assembler    Page 55 Alphabetic symbol ordering
Absolute symbols

      At line 388 in file lab10.s
      At line 1495 in file lab10.s
      At line 1511 in file lab10.s
      At line 1512 in file lab10.s

MCG_ATCVH 4006400A

Symbol: MCG_ATCVH
   Definitions
      At line 601 in file MKL05Z4.s
   Uses
      None
Comment: MCG_ATCVH unused
MCG_ATCVH_ATCVH_MASK 000000FF

Symbol: MCG_ATCVH_ATCVH_MASK
   Definitions
      At line 762 in file MKL05Z4.s
   Uses
      None
Comment: MCG_ATCVH_ATCVH_MASK unused
MCG_ATCVH_ATCVH_SHIFT 00000000

Symbol: MCG_ATCVH_ATCVH_SHIFT
   Definitions
      At line 763 in file MKL05Z4.s
   Uses
      None
Comment: MCG_ATCVH_ATCVH_SHIFT unused
MCG_ATCVH_OFFSET 0000000A

Symbol: MCG_ATCVH_OFFSET
   Definitions
      At line 592 in file MKL05Z4.s
   Uses
      At line 601 in file MKL05Z4.s
Comment: MCG_ATCVH_OFFSET used once
MCG_ATCVL 4006400B

Symbol: MCG_ATCVL
   Definitions
      At line 602 in file MKL05Z4.s



ARM Macro Assembler    Page 56 Alphabetic symbol ordering
Absolute symbols

   Uses
      None
Comment: MCG_ATCVL unused
MCG_ATCVL_ATCVL_MASK 000000FF

Symbol: MCG_ATCVL_ATCVL_MASK
   Definitions
      At line 767 in file MKL05Z4.s
   Uses
      None
Comment: MCG_ATCVL_ATCVL_MASK unused
MCG_ATCVL_ATCVL_SHIFT 00000000

Symbol: MCG_ATCVL_ATCVL_SHIFT
   Definitions
      At line 768 in file MKL05Z4.s
   Uses
      None
Comment: MCG_ATCVL_ATCVL_SHIFT unused
MCG_ATCVL_OFFSET 0000000B

Symbol: MCG_ATCVL_OFFSET
   Definitions
      At line 593 in file MKL05Z4.s
   Uses
      At line 602 in file MKL05Z4.s
Comment: MCG_ATCVL_OFFSET used once
MCG_BASE 40064000

Symbol: MCG_BASE
   Definitions
      At line 584 in file MKL05Z4.s
   Uses
      At line 594 in file MKL05Z4.s
      At line 595 in file MKL05Z4.s
      At line 596 in file MKL05Z4.s
      At line 597 in file MKL05Z4.s
      At line 598 in file MKL05Z4.s
      At line 599 in file MKL05Z4.s
      At line 600 in file MKL05Z4.s
      At line 601 in file MKL05Z4.s
      At line 602 in file MKL05Z4.s



ARM Macro Assembler    Page 57 Alphabetic symbol ordering
Absolute symbols


MCG_C1 40064000

Symbol: MCG_C1
   Definitions
      At line 594 in file MKL05Z4.s
   Uses
      None
Comment: MCG_C1 unused
MCG_C1_CLKS_MASK 000000C0

Symbol: MCG_C1_CLKS_MASK
   Definitions
      At line 627 in file MKL05Z4.s
   Uses
      None
Comment: MCG_C1_CLKS_MASK unused
MCG_C1_CLKS_SHIFT 00000006

Symbol: MCG_C1_CLKS_SHIFT
   Definitions
      At line 628 in file MKL05Z4.s
   Uses
      None
Comment: MCG_C1_CLKS_SHIFT unused
MCG_C1_FRDIV_MASK 00000038

Symbol: MCG_C1_FRDIV_MASK
   Definitions
      At line 629 in file MKL05Z4.s
   Uses
      None
Comment: MCG_C1_FRDIV_MASK unused
MCG_C1_FRDIV_SHIFT 00000003

Symbol: MCG_C1_FRDIV_SHIFT
   Definitions
      At line 630 in file MKL05Z4.s
   Uses
      None
Comment: MCG_C1_FRDIV_SHIFT unused
MCG_C1_IRCLKEN_MASK 00000002



ARM Macro Assembler    Page 58 Alphabetic symbol ordering
Absolute symbols


Symbol: MCG_C1_IRCLKEN_MASK
   Definitions
      At line 633 in file MKL05Z4.s
   Uses
      None
Comment: MCG_C1_IRCLKEN_MASK unused
MCG_C1_IRCLKEN_SHIFT 00000001

Symbol: MCG_C1_IRCLKEN_SHIFT
   Definitions
      At line 634 in file MKL05Z4.s
   Uses
      None
Comment: MCG_C1_IRCLKEN_SHIFT unused
MCG_C1_IREFSTEN_MASK 00000001

Symbol: MCG_C1_IREFSTEN_MASK
   Definitions
      At line 635 in file MKL05Z4.s
   Uses
      None
Comment: MCG_C1_IREFSTEN_MASK unused
MCG_C1_IREFSTEN_SHIFT 00000000

Symbol: MCG_C1_IREFSTEN_SHIFT
   Definitions
      At line 636 in file MKL05Z4.s
   Uses
      None
Comment: MCG_C1_IREFSTEN_SHIFT unused
MCG_C1_IREFS_MASK 00000004

Symbol: MCG_C1_IREFS_MASK
   Definitions
      At line 631 in file MKL05Z4.s
   Uses
      None
Comment: MCG_C1_IREFS_MASK unused
MCG_C1_IREFS_SHIFT 00000002

Symbol: MCG_C1_IREFS_SHIFT



ARM Macro Assembler    Page 59 Alphabetic symbol ordering
Absolute symbols

   Definitions
      At line 632 in file MKL05Z4.s
   Uses
      None
Comment: MCG_C1_IREFS_SHIFT unused
MCG_C1_OFFSET 00000000

Symbol: MCG_C1_OFFSET
   Definitions
      At line 585 in file MKL05Z4.s
   Uses
      At line 594 in file MKL05Z4.s
Comment: MCG_C1_OFFSET used once
MCG_C2 40064001

Symbol: MCG_C2
   Definitions
      At line 595 in file MKL05Z4.s
   Uses
      None
Comment: MCG_C2 unused
MCG_C2_EREFS0_MASK 00000004

Symbol: MCG_C2_EREFS0_MASK
   Definitions
      At line 665 in file MKL05Z4.s
   Uses
      None
Comment: MCG_C2_EREFS0_MASK unused
MCG_C2_EREFS0_SHIFT 00000002

Symbol: MCG_C2_EREFS0_SHIFT
   Definitions
      At line 666 in file MKL05Z4.s
   Uses
      None
Comment: MCG_C2_EREFS0_SHIFT unused
MCG_C2_HGO0_MASK 00000008

Symbol: MCG_C2_HGO0_MASK
   Definitions
      At line 663 in file MKL05Z4.s



ARM Macro Assembler    Page 60 Alphabetic symbol ordering
Absolute symbols

   Uses
      None
Comment: MCG_C2_HGO0_MASK unused
MCG_C2_HGO0_SHIFT 00000003

Symbol: MCG_C2_HGO0_SHIFT
   Definitions
      At line 664 in file MKL05Z4.s
   Uses
      None
Comment: MCG_C2_HGO0_SHIFT unused
MCG_C2_IRCS_MASK 00000001

Symbol: MCG_C2_IRCS_MASK
   Definitions
      At line 669 in file MKL05Z4.s
   Uses
      None
Comment: MCG_C2_IRCS_MASK unused
MCG_C2_IRCS_SHIFT 00000000

Symbol: MCG_C2_IRCS_SHIFT
   Definitions
      At line 670 in file MKL05Z4.s
   Uses
      None
Comment: MCG_C2_IRCS_SHIFT unused
MCG_C2_LOCRE0_MASK 00000080

Symbol: MCG_C2_LOCRE0_MASK
   Definitions
      At line 659 in file MKL05Z4.s
   Uses
      None
Comment: MCG_C2_LOCRE0_MASK unused
MCG_C2_LOCRE0_SHIFT 00000007

Symbol: MCG_C2_LOCRE0_SHIFT
   Definitions
      At line 660 in file MKL05Z4.s
   Uses
      None



ARM Macro Assembler    Page 61 Alphabetic symbol ordering
Absolute symbols

Comment: MCG_C2_LOCRE0_SHIFT unused
MCG_C2_LP_MASK 00000002

Symbol: MCG_C2_LP_MASK
   Definitions
      At line 667 in file MKL05Z4.s
   Uses
      None
Comment: MCG_C2_LP_MASK unused
MCG_C2_LP_SHIFT 00000001

Symbol: MCG_C2_LP_SHIFT
   Definitions
      At line 668 in file MKL05Z4.s
   Uses
      None
Comment: MCG_C2_LP_SHIFT unused
MCG_C2_OFFSET 00000001

Symbol: MCG_C2_OFFSET
   Definitions
      At line 586 in file MKL05Z4.s
   Uses
      At line 595 in file MKL05Z4.s
Comment: MCG_C2_OFFSET used once
MCG_C2_RANGE0_MASK 00000030

Symbol: MCG_C2_RANGE0_MASK
   Definitions
      At line 661 in file MKL05Z4.s
   Uses
      None
Comment: MCG_C2_RANGE0_MASK unused
MCG_C2_RANGE0_SHIFT 00000004

Symbol: MCG_C2_RANGE0_SHIFT
   Definitions
      At line 662 in file MKL05Z4.s
   Uses
      None
Comment: MCG_C2_RANGE0_SHIFT unused
MCG_C3 40064002



ARM Macro Assembler    Page 62 Alphabetic symbol ordering
Absolute symbols


Symbol: MCG_C3
   Definitions
      At line 596 in file MKL05Z4.s
   Uses
      None
Comment: MCG_C3 unused
MCG_C3_OFFSET 00000002

Symbol: MCG_C3_OFFSET
   Definitions
      At line 587 in file MKL05Z4.s
   Uses
      At line 596 in file MKL05Z4.s
Comment: MCG_C3_OFFSET used once
MCG_C3_SCTRIM_MASK 000000FF

Symbol: MCG_C3_SCTRIM_MASK
   Definitions
      At line 675 in file MKL05Z4.s
   Uses
      None
Comment: MCG_C3_SCTRIM_MASK unused
MCG_C3_SCTRIM_SHIFT 00000000

Symbol: MCG_C3_SCTRIM_SHIFT
   Definitions
      At line 676 in file MKL05Z4.s
   Uses
      None
Comment: MCG_C3_SCTRIM_SHIFT unused
MCG_C4 40064003

Symbol: MCG_C4
   Definitions
      At line 597 in file MKL05Z4.s
   Uses
      None
Comment: MCG_C4 unused
MCG_C4_DMX32_MASK 00000080

Symbol: MCG_C4_DMX32_MASK



ARM Macro Assembler    Page 63 Alphabetic symbol ordering
Absolute symbols

   Definitions
      At line 691 in file MKL05Z4.s
   Uses
      None
Comment: MCG_C4_DMX32_MASK unused
MCG_C4_DMX32_SHIFT 00000007

Symbol: MCG_C4_DMX32_SHIFT
   Definitions
      At line 692 in file MKL05Z4.s
   Uses
      None
Comment: MCG_C4_DMX32_SHIFT unused
MCG_C4_DRST_DRS_MASK 00000060

Symbol: MCG_C4_DRST_DRS_MASK
   Definitions
      At line 693 in file MKL05Z4.s
   Uses
      None
Comment: MCG_C4_DRST_DRS_MASK unused
MCG_C4_DRST_DRS_SHIFT 00000005

Symbol: MCG_C4_DRST_DRS_SHIFT
   Definitions
      At line 694 in file MKL05Z4.s
   Uses
      None
Comment: MCG_C4_DRST_DRS_SHIFT unused
MCG_C4_FCTRIM_MASK 0000001E

Symbol: MCG_C4_FCTRIM_MASK
   Definitions
      At line 695 in file MKL05Z4.s
   Uses
      None
Comment: MCG_C4_FCTRIM_MASK unused
MCG_C4_FCTRIM_SHIFT 00000001

Symbol: MCG_C4_FCTRIM_SHIFT
   Definitions
      At line 696 in file MKL05Z4.s



ARM Macro Assembler    Page 64 Alphabetic symbol ordering
Absolute symbols

   Uses
      None
Comment: MCG_C4_FCTRIM_SHIFT unused
MCG_C4_OFFSET 00000003

Symbol: MCG_C4_OFFSET
   Definitions
      At line 588 in file MKL05Z4.s
   Uses
      At line 597 in file MKL05Z4.s
Comment: MCG_C4_OFFSET used once
MCG_C4_SCFTRIM_MASK 00000001

Symbol: MCG_C4_SCFTRIM_MASK
   Definitions
      At line 697 in file MKL05Z4.s
   Uses
      None
Comment: MCG_C4_SCFTRIM_MASK unused
MCG_C4_SCFTRIM_SHIFT 00000000

Symbol: MCG_C4_SCFTRIM_SHIFT
   Definitions
      At line 698 in file MKL05Z4.s
   Uses
      None
Comment: MCG_C4_SCFTRIM_SHIFT unused
MCG_C6 40064005

Symbol: MCG_C6
   Definitions
      At line 598 in file MKL05Z4.s
   Uses
      None
Comment: MCG_C6 unused
MCG_C6_CME_MASK 00000020

Symbol: MCG_C6_CME_MASK
   Definitions
      At line 704 in file MKL05Z4.s
   Uses
      None



ARM Macro Assembler    Page 65 Alphabetic symbol ordering
Absolute symbols

Comment: MCG_C6_CME_MASK unused
MCG_C6_CME_SHIFT 00000005

Symbol: MCG_C6_CME_SHIFT
   Definitions
      At line 705 in file MKL05Z4.s
   Uses
      None
Comment: MCG_C6_CME_SHIFT unused
MCG_C6_OFFSET 00000005

Symbol: MCG_C6_OFFSET
   Definitions
      At line 589 in file MKL05Z4.s
   Uses
      At line 598 in file MKL05Z4.s
Comment: MCG_C6_OFFSET used once
MCG_IPR E000E418

Symbol: MCG_IPR
   Definitions
      At line 941 in file MKL05Z4.s
   Uses
      None
Comment: MCG_IPR unused
MCG_IRQ_MASK 08000000

Symbol: MCG_IRQ_MASK
   Definitions
      At line 1011 in file MKL05Z4.s
   Uses
      None
Comment: MCG_IRQ_MASK unused
MCG_IRQn 0000001B

Symbol: MCG_IRQn
   Definitions
      At line 190 in file MKL05Z4.s
   Uses
      At line 1011 in file MKL05Z4.s
Comment: MCG_IRQn used once
MCG_PRI_POS 0000001E



ARM Macro Assembler    Page 66 Alphabetic symbol ordering
Absolute symbols


Symbol: MCG_PRI_POS
   Definitions
      At line 977 in file MKL05Z4.s
   Uses
      None
Comment: MCG_PRI_POS unused
MCG_S 40064006

Symbol: MCG_S
   Definitions
      At line 599 in file MKL05Z4.s
   Uses
      None
Comment: MCG_S unused
MCG_SC 40064008

Symbol: MCG_SC
   Definitions
      At line 600 in file MKL05Z4.s
   Uses
      None
Comment: MCG_SC unused
MCG_SC_ATME_MASK 00000080

Symbol: MCG_SC_ATME_MASK
   Definitions
      At line 747 in file MKL05Z4.s
   Uses
      None
Comment: MCG_SC_ATME_MASK unused
MCG_SC_ATME_SHIFT 00000007

Symbol: MCG_SC_ATME_SHIFT
   Definitions
      At line 748 in file MKL05Z4.s
   Uses
      None
Comment: MCG_SC_ATME_SHIFT unused
MCG_SC_ATMF_MASK 00000020

Symbol: MCG_SC_ATMF_MASK



ARM Macro Assembler    Page 67 Alphabetic symbol ordering
Absolute symbols

   Definitions
      At line 751 in file MKL05Z4.s
   Uses
      None
Comment: MCG_SC_ATMF_MASK unused
MCG_SC_ATMF_SHIFT 00000005

Symbol: MCG_SC_ATMF_SHIFT
   Definitions
      At line 752 in file MKL05Z4.s
   Uses
      None
Comment: MCG_SC_ATMF_SHIFT unused
MCG_SC_ATMS_MASK 00000040

Symbol: MCG_SC_ATMS_MASK
   Definitions
      At line 749 in file MKL05Z4.s
   Uses
      None
Comment: MCG_SC_ATMS_MASK unused
MCG_SC_ATMS_SHIFT 00000006

Symbol: MCG_SC_ATMS_SHIFT
   Definitions
      At line 750 in file MKL05Z4.s
   Uses
      None
Comment: MCG_SC_ATMS_SHIFT unused
MCG_SC_FCRDIV_MASK 0000000E

Symbol: MCG_SC_FCRDIV_MASK
   Definitions
      At line 755 in file MKL05Z4.s
   Uses
      None
Comment: MCG_SC_FCRDIV_MASK unused
MCG_SC_FCRDIV_SHIFT 00000001

Symbol: MCG_SC_FCRDIV_SHIFT
   Definitions
      At line 756 in file MKL05Z4.s



ARM Macro Assembler    Page 68 Alphabetic symbol ordering
Absolute symbols

   Uses
      None
Comment: MCG_SC_FCRDIV_SHIFT unused
MCG_SC_FLTPRSRV_MASK 00000010

Symbol: MCG_SC_FLTPRSRV_MASK
   Definitions
      At line 753 in file MKL05Z4.s
   Uses
      None
Comment: MCG_SC_FLTPRSRV_MASK unused
MCG_SC_FLTPRSRV_SHIFT 00000004

Symbol: MCG_SC_FLTPRSRV_SHIFT
   Definitions
      At line 754 in file MKL05Z4.s
   Uses
      None
Comment: MCG_SC_FLTPRSRV_SHIFT unused
MCG_SC_LOCS0_MASK 00000001

Symbol: MCG_SC_LOCS0_MASK
   Definitions
      At line 757 in file MKL05Z4.s
   Uses
      None
Comment: MCG_SC_LOCS0_MASK unused
MCG_SC_LOCS0_SHIFT 00000000

Symbol: MCG_SC_LOCS0_SHIFT
   Definitions
      At line 758 in file MKL05Z4.s
   Uses
      None
Comment: MCG_SC_LOCS0_SHIFT unused
MCG_SC_OFFSET 00000008

Symbol: MCG_SC_OFFSET
   Definitions
      At line 591 in file MKL05Z4.s
   Uses
      At line 600 in file MKL05Z4.s



ARM Macro Assembler    Page 69 Alphabetic symbol ordering
Absolute symbols

Comment: MCG_SC_OFFSET used once
MCG_S_CLKST_MASK 0000000C

Symbol: MCG_S_CLKST_MASK
   Definitions
      At line 723 in file MKL05Z4.s
   Uses
      None
Comment: MCG_S_CLKST_MASK unused
MCG_S_CLKST_SHIFT 00000002

Symbol: MCG_S_CLKST_SHIFT
   Definitions
      At line 724 in file MKL05Z4.s
   Uses
      None
Comment: MCG_S_CLKST_SHIFT unused
MCG_S_IRCST_MASK 00000001

Symbol: MCG_S_IRCST_MASK
   Definitions
      At line 727 in file MKL05Z4.s
   Uses
      None
Comment: MCG_S_IRCST_MASK unused
MCG_S_IRCST_SHIFT 00000000

Symbol: MCG_S_IRCST_SHIFT
   Definitions
      At line 728 in file MKL05Z4.s
   Uses
      None
Comment: MCG_S_IRCST_SHIFT unused
MCG_S_IREFST_MASK 00000010

Symbol: MCG_S_IREFST_MASK
   Definitions
      At line 721 in file MKL05Z4.s
   Uses
      None
Comment: MCG_S_IREFST_MASK unused
MCG_S_IREFST_SHIFT 00000004



ARM Macro Assembler    Page 70 Alphabetic symbol ordering
Absolute symbols


Symbol: MCG_S_IREFST_SHIFT
   Definitions
      At line 722 in file MKL05Z4.s
   Uses
      None
Comment: MCG_S_IREFST_SHIFT unused
MCG_S_OFFSET 00000006

Symbol: MCG_S_OFFSET
   Definitions
      At line 590 in file MKL05Z4.s
   Uses
      At line 599 in file MKL05Z4.s
Comment: MCG_S_OFFSET used once
MCG_S_OSCINIT0_MASK 00000002

Symbol: MCG_S_OSCINIT0_MASK
   Definitions
      At line 725 in file MKL05Z4.s
   Uses
      None
Comment: MCG_S_OSCINIT0_MASK unused
MCG_S_OSCINIT0_SHIFT 00000001

Symbol: MCG_S_OSCINIT0_SHIFT
   Definitions
      At line 726 in file MKL05Z4.s
   Uses
      None
Comment: MCG_S_OSCINIT0_SHIFT unused
MCG_Vector 0000002B

Symbol: MCG_Vector
   Definitions
      At line 1062 in file MKL05Z4.s
   Uses
      None
Comment: MCG_Vector unused
MCU_MEM_MAP_VERSION 00000100

Symbol: MCU_MEM_MAP_VERSION



ARM Macro Assembler    Page 71 Alphabetic symbol ordering
Absolute symbols

   Definitions
      At line 148 in file MKL05Z4.s
   Uses
      None
Comment: MCU_MEM_MAP_VERSION unused
MCU_MEM_MAP_VERSION_MINOR 00000006

Symbol: MCU_MEM_MAP_VERSION_MINOR
   Definitions
      At line 150 in file MKL05Z4.s
   Uses
      None
Comment: MCU_MEM_MAP_VERSION_MINOR unused
NIBBLE_BITS 00000004

Symbol: NIBBLE_BITS
   Definitions
      At line 37 in file MKL05Z4.s
   Uses
      None
Comment: NIBBLE_BITS unused
NIBBLE_MASK 0000000F

Symbol: NIBBLE_MASK
   Definitions
      At line 34 in file MKL05Z4.s
   Uses
      None
Comment: NIBBLE_MASK unused
NMI_Vector 00000002

Symbol: NMI_Vector
   Definitions
      At line 1020 in file MKL05Z4.s
   Uses
      None
Comment: NMI_Vector unused
NULL 00000000

Symbol: NULL
   Definitions
      At line 50 in file lab10.s



ARM Macro Assembler    Page 72 Alphabetic symbol ordering
Absolute symbols

   Uses
      At line 1259 in file lab10.s
      At line 1475 in file lab10.s
      At line 1477 in file lab10.s
      At line 1479 in file lab10.s
      At line 1481 in file lab10.s
      At line 1483 in file lab10.s

NUM_ENQD 00000011

Symbol: NUM_ENQD
   Definitions
      At line 32 in file lab10.s
   Uses
      At line 754 in file lab10.s
      At line 773 in file lab10.s
      At line 785 in file lab10.s
      At line 787 in file lab10.s
      At line 850 in file lab10.s
      At line 882 in file lab10.s
      At line 884 in file lab10.s

NVIC_BASE E000E100

Symbol: NVIC_BASE
   Definitions
      At line 887 in file MKL05Z4.s
   Uses
      At line 900 in file MKL05Z4.s
      At line 901 in file MKL05Z4.s
      At line 902 in file MKL05Z4.s
      At line 903 in file MKL05Z4.s
      At line 904 in file MKL05Z4.s
      At line 905 in file MKL05Z4.s
      At line 906 in file MKL05Z4.s
      At line 907 in file MKL05Z4.s
      At line 908 in file MKL05Z4.s
      At line 909 in file MKL05Z4.s
      At line 910 in file MKL05Z4.s
      At line 911 in file MKL05Z4.s

NVIC_ICER E000E180



ARM Macro Assembler    Page 73 Alphabetic symbol ordering
Absolute symbols


Symbol: NVIC_ICER
   Definitions
      At line 901 in file MKL05Z4.s
   Uses
      None
Comment: NVIC_ICER unused
NVIC_ICER_OFFSET 00000080

Symbol: NVIC_ICER_OFFSET
   Definitions
      At line 889 in file MKL05Z4.s
   Uses
      At line 901 in file MKL05Z4.s
Comment: NVIC_ICER_OFFSET used once
NVIC_ICER_PIT_MASK 00400000

Symbol: NVIC_ICER_PIT_MASK
   Definitions
      At line 59 in file lab10.s
   Uses
      None
Comment: NVIC_ICER_PIT_MASK unused
NVIC_ICER_UART0_MASK 00001000

Symbol: NVIC_ICER_UART0_MASK
   Definitions
      At line 60 in file lab10.s
   Uses
      None
Comment: NVIC_ICER_UART0_MASK unused
NVIC_ICPR E000E280

Symbol: NVIC_ICPR
   Definitions
      At line 903 in file MKL05Z4.s
   Uses
      At line 1086 in file lab10.s
Comment: NVIC_ICPR used once
NVIC_ICPR_OFFSET 00000180

Symbol: NVIC_ICPR_OFFSET



ARM Macro Assembler    Page 74 Alphabetic symbol ordering
Absolute symbols

   Definitions
      At line 891 in file MKL05Z4.s
   Uses
      At line 903 in file MKL05Z4.s
Comment: NVIC_ICPR_OFFSET used once
NVIC_ICPR_PIT_MASK 00400000

Symbol: NVIC_ICPR_PIT_MASK
   Definitions
      At line 69 in file lab10.s
   Uses
      None
Comment: NVIC_ICPR_PIT_MASK unused
NVIC_ICPR_UART0_MASK 00001000

Symbol: NVIC_ICPR_UART0_MASK
   Definitions
      At line 70 in file lab10.s
   Uses
      At line 1087 in file lab10.s
Comment: NVIC_ICPR_UART0_MASK used once
NVIC_IPR0 E000E400

Symbol: NVIC_IPR0
   Definitions
      At line 904 in file MKL05Z4.s
   Uses
      At line 914 in file MKL05Z4.s
      At line 915 in file MKL05Z4.s
      At line 916 in file MKL05Z4.s
      At line 917 in file MKL05Z4.s

NVIC_IPR0_OFFSET 00000300

Symbol: NVIC_IPR0_OFFSET
   Definitions
      At line 892 in file MKL05Z4.s
   Uses
      At line 904 in file MKL05Z4.s
Comment: NVIC_IPR0_OFFSET used once
NVIC_IPR1 E000E404




ARM Macro Assembler    Page 75 Alphabetic symbol ordering
Absolute symbols

Symbol: NVIC_IPR1
   Definitions
      At line 905 in file MKL05Z4.s
   Uses
      At line 918 in file MKL05Z4.s
      At line 919 in file MKL05Z4.s
      At line 920 in file MKL05Z4.s
      At line 921 in file MKL05Z4.s

NVIC_IPR1_OFFSET 00000304

Symbol: NVIC_IPR1_OFFSET
   Definitions
      At line 893 in file MKL05Z4.s
   Uses
      At line 905 in file MKL05Z4.s
Comment: NVIC_IPR1_OFFSET used once
NVIC_IPR2 E000E408

Symbol: NVIC_IPR2
   Definitions
      At line 906 in file MKL05Z4.s
   Uses
      At line 922 in file MKL05Z4.s
      At line 923 in file MKL05Z4.s
      At line 924 in file MKL05Z4.s
      At line 925 in file MKL05Z4.s

NVIC_IPR2_OFFSET 00000308

Symbol: NVIC_IPR2_OFFSET
   Definitions
      At line 894 in file MKL05Z4.s
   Uses
      At line 906 in file MKL05Z4.s
Comment: NVIC_IPR2_OFFSET used once
NVIC_IPR3 E000E40C

Symbol: NVIC_IPR3
   Definitions
      At line 907 in file MKL05Z4.s
   Uses



ARM Macro Assembler    Page 76 Alphabetic symbol ordering
Absolute symbols

      At line 926 in file MKL05Z4.s
      At line 927 in file MKL05Z4.s
      At line 928 in file MKL05Z4.s
      At line 929 in file MKL05Z4.s

NVIC_IPR3_OFFSET 0000030C

Symbol: NVIC_IPR3_OFFSET
   Definitions
      At line 895 in file MKL05Z4.s
   Uses
      At line 907 in file MKL05Z4.s
Comment: NVIC_IPR3_OFFSET used once
NVIC_IPR4 E000E410

Symbol: NVIC_IPR4
   Definitions
      At line 908 in file MKL05Z4.s
   Uses
      At line 930 in file MKL05Z4.s
      At line 931 in file MKL05Z4.s
      At line 932 in file MKL05Z4.s
      At line 933 in file MKL05Z4.s

NVIC_IPR4_OFFSET 00000310

Symbol: NVIC_IPR4_OFFSET
   Definitions
      At line 896 in file MKL05Z4.s
   Uses
      At line 908 in file MKL05Z4.s
Comment: NVIC_IPR4_OFFSET used once
NVIC_IPR5 E000E414

Symbol: NVIC_IPR5
   Definitions
      At line 909 in file MKL05Z4.s
   Uses
      At line 934 in file MKL05Z4.s
      At line 935 in file MKL05Z4.s
      At line 936 in file MKL05Z4.s
      At line 937 in file MKL05Z4.s



ARM Macro Assembler    Page 77 Alphabetic symbol ordering
Absolute symbols


NVIC_IPR5_OFFSET 00000314

Symbol: NVIC_IPR5_OFFSET
   Definitions
      At line 897 in file MKL05Z4.s
   Uses
      At line 909 in file MKL05Z4.s
Comment: NVIC_IPR5_OFFSET used once
NVIC_IPR6 E000E418

Symbol: NVIC_IPR6
   Definitions
      At line 910 in file MKL05Z4.s
   Uses
      At line 938 in file MKL05Z4.s
      At line 939 in file MKL05Z4.s
      At line 940 in file MKL05Z4.s
      At line 941 in file MKL05Z4.s

NVIC_IPR6_OFFSET 00000318

Symbol: NVIC_IPR6_OFFSET
   Definitions
      At line 898 in file MKL05Z4.s
   Uses
      At line 910 in file MKL05Z4.s
Comment: NVIC_IPR6_OFFSET used once
NVIC_IPR7 E000E41C

Symbol: NVIC_IPR7
   Definitions
      At line 911 in file MKL05Z4.s
   Uses
      At line 942 in file MKL05Z4.s
      At line 943 in file MKL05Z4.s
      At line 944 in file MKL05Z4.s
      At line 945 in file MKL05Z4.s

NVIC_IPR7_OFFSET 0000031C

Symbol: NVIC_IPR7_OFFSET



ARM Macro Assembler    Page 78 Alphabetic symbol ordering
Absolute symbols

   Definitions
      At line 899 in file MKL05Z4.s
   Uses
      At line 911 in file MKL05Z4.s
Comment: NVIC_IPR7_OFFSET used once
NVIC_IPR_PIT_MASK 00C00000

Symbol: NVIC_IPR_PIT_MASK
   Definitions
      At line 76 in file lab10.s
   Uses
      None
Comment: NVIC_IPR_PIT_MASK unused
NVIC_IPR_PIT_PRI_0 00000000

Symbol: NVIC_IPR_PIT_PRI_0
   Definitions
      At line 77 in file lab10.s
   Uses
      None
Comment: NVIC_IPR_PIT_PRI_0 unused
NVIC_IPR_UART0_MASK 000000C0

Symbol: NVIC_IPR_UART0_MASK
   Definitions
      At line 80 in file lab10.s
   Uses
      At line 1072 in file lab10.s
Comment: NVIC_IPR_UART0_MASK used once
NVIC_IPR_UART0_PRI_3 000000C0

Symbol: NVIC_IPR_UART0_PRI_3
   Definitions
      At line 81 in file lab10.s
   Uses
      At line 1074 in file lab10.s
Comment: NVIC_IPR_UART0_PRI_3 used once
NVIC_ISER E000E100

Symbol: NVIC_ISER
   Definitions
      At line 900 in file MKL05Z4.s



ARM Macro Assembler    Page 79 Alphabetic symbol ordering
Absolute symbols

   Uses
      At line 481 in file lab10.s
      At line 1091 in file lab10.s

NVIC_ISER_OFFSET 00000000

Symbol: NVIC_ISER_OFFSET
   Definitions
      At line 888 in file MKL05Z4.s
   Uses
      At line 900 in file MKL05Z4.s
Comment: NVIC_ISER_OFFSET used once
NVIC_ISER_PIT_MASK 00400000

Symbol: NVIC_ISER_PIT_MASK
   Definitions
      At line 89 in file lab10.s
   Uses
      None
Comment: NVIC_ISER_PIT_MASK unused
NVIC_ISER_UART0_MASK 00001000

Symbol: NVIC_ISER_UART0_MASK
   Definitions
      At line 90 in file lab10.s
   Uses
      At line 1092 in file lab10.s
Comment: NVIC_ISER_UART0_MASK used once
NVIC_ISPR E000E200

Symbol: NVIC_ISPR
   Definitions
      At line 902 in file MKL05Z4.s
   Uses
      None
Comment: NVIC_ISPR unused
NVIC_ISPR_OFFSET 00000100

Symbol: NVIC_ISPR_OFFSET
   Definitions
      At line 890 in file MKL05Z4.s
   Uses



ARM Macro Assembler    Page 80 Alphabetic symbol ordering
Absolute symbols

      At line 902 in file MKL05Z4.s
Comment: NVIC_ISPR_OFFSET used once
NV_BACKKEY0 00000403

Symbol: NV_BACKKEY0
   Definitions
      At line 791 in file MKL05Z4.s
   Uses
      None
Comment: NV_BACKKEY0 unused
NV_BACKKEY0_KEY_MASK 000000FF

Symbol: NV_BACKKEY0_KEY_MASK
   Definitions
      At line 816 in file MKL05Z4.s
   Uses
      None
Comment: NV_BACKKEY0_KEY_MASK unused
NV_BACKKEY0_KEY_SHIFT 00000000

Symbol: NV_BACKKEY0_KEY_SHIFT
   Definitions
      At line 817 in file MKL05Z4.s
   Uses
      None
Comment: NV_BACKKEY0_KEY_SHIFT unused
NV_BACKKEY0_OFFSET 00000003

Symbol: NV_BACKKEY0_OFFSET
   Definitions
      At line 777 in file MKL05Z4.s
   Uses
      At line 791 in file MKL05Z4.s
Comment: NV_BACKKEY0_OFFSET used once
NV_BACKKEY1 00000402

Symbol: NV_BACKKEY1
   Definitions
      At line 790 in file MKL05Z4.s
   Uses
      None
Comment: NV_BACKKEY1 unused



ARM Macro Assembler    Page 81 Alphabetic symbol ordering
Absolute symbols

NV_BACKKEY1_KEY_MASK 000000FF

Symbol: NV_BACKKEY1_KEY_MASK
   Definitions
      At line 812 in file MKL05Z4.s
   Uses
      None
Comment: NV_BACKKEY1_KEY_MASK unused
NV_BACKKEY1_KEY_SHIFT 00000000

Symbol: NV_BACKKEY1_KEY_SHIFT
   Definitions
      At line 813 in file MKL05Z4.s
   Uses
      None
Comment: NV_BACKKEY1_KEY_SHIFT unused
NV_BACKKEY1_OFFSET 00000002

Symbol: NV_BACKKEY1_OFFSET
   Definitions
      At line 776 in file MKL05Z4.s
   Uses
      At line 790 in file MKL05Z4.s
Comment: NV_BACKKEY1_OFFSET used once
NV_BACKKEY2 00000401

Symbol: NV_BACKKEY2
   Definitions
      At line 789 in file MKL05Z4.s
   Uses
      None
Comment: NV_BACKKEY2 unused
NV_BACKKEY2_KEY_MASK 000000FF

Symbol: NV_BACKKEY2_KEY_MASK
   Definitions
      At line 808 in file MKL05Z4.s
   Uses
      None
Comment: NV_BACKKEY2_KEY_MASK unused
NV_BACKKEY2_KEY_SHIFT 00000000




ARM Macro Assembler    Page 82 Alphabetic symbol ordering
Absolute symbols

Symbol: NV_BACKKEY2_KEY_SHIFT
   Definitions
      At line 809 in file MKL05Z4.s
   Uses
      None
Comment: NV_BACKKEY2_KEY_SHIFT unused
NV_BACKKEY2_OFFSET 00000001

Symbol: NV_BACKKEY2_OFFSET
   Definitions
      At line 775 in file MKL05Z4.s
   Uses
      At line 789 in file MKL05Z4.s
Comment: NV_BACKKEY2_OFFSET used once
NV_BACKKEY3 00000400

Symbol: NV_BACKKEY3
   Definitions
      At line 788 in file MKL05Z4.s
   Uses
      None
Comment: NV_BACKKEY3 unused
NV_BACKKEY3_KEY_MASK 000000FF

Symbol: NV_BACKKEY3_KEY_MASK
   Definitions
      At line 804 in file MKL05Z4.s
   Uses
      None
Comment: NV_BACKKEY3_KEY_MASK unused
NV_BACKKEY3_KEY_SHIFT 00000000

Symbol: NV_BACKKEY3_KEY_SHIFT
   Definitions
      At line 805 in file MKL05Z4.s
   Uses
      None
Comment: NV_BACKKEY3_KEY_SHIFT unused
NV_BACKKEY3_OFFSET 00000000

Symbol: NV_BACKKEY3_OFFSET
   Definitions



ARM Macro Assembler    Page 83 Alphabetic symbol ordering
Absolute symbols

      At line 774 in file MKL05Z4.s
   Uses
      At line 788 in file MKL05Z4.s
Comment: NV_BACKKEY3_OFFSET used once
NV_BACKKEY4 00000407

Symbol: NV_BACKKEY4
   Definitions
      At line 795 in file MKL05Z4.s
   Uses
      None
Comment: NV_BACKKEY4 unused
NV_BACKKEY4_KEY_MASK 000000FF

Symbol: NV_BACKKEY4_KEY_MASK
   Definitions
      At line 832 in file MKL05Z4.s
   Uses
      None
Comment: NV_BACKKEY4_KEY_MASK unused
NV_BACKKEY4_KEY_SHIFT 00000000

Symbol: NV_BACKKEY4_KEY_SHIFT
   Definitions
      At line 833 in file MKL05Z4.s
   Uses
      None
Comment: NV_BACKKEY4_KEY_SHIFT unused
NV_BACKKEY4_OFFSET 00000007

Symbol: NV_BACKKEY4_OFFSET
   Definitions
      At line 781 in file MKL05Z4.s
   Uses
      At line 795 in file MKL05Z4.s
Comment: NV_BACKKEY4_OFFSET used once
NV_BACKKEY5 00000406

Symbol: NV_BACKKEY5
   Definitions
      At line 794 in file MKL05Z4.s
   Uses



ARM Macro Assembler    Page 84 Alphabetic symbol ordering
Absolute symbols

      None
Comment: NV_BACKKEY5 unused
NV_BACKKEY5_KEY_MASK 000000FF

Symbol: NV_BACKKEY5_KEY_MASK
   Definitions
      At line 828 in file MKL05Z4.s
   Uses
      None
Comment: NV_BACKKEY5_KEY_MASK unused
NV_BACKKEY5_KEY_SHIFT 00000000

Symbol: NV_BACKKEY5_KEY_SHIFT
   Definitions
      At line 829 in file MKL05Z4.s
   Uses
      None
Comment: NV_BACKKEY5_KEY_SHIFT unused
NV_BACKKEY5_OFFSET 00000006

Symbol: NV_BACKKEY5_OFFSET
   Definitions
      At line 780 in file MKL05Z4.s
   Uses
      At line 794 in file MKL05Z4.s
Comment: NV_BACKKEY5_OFFSET used once
NV_BACKKEY6 00000405

Symbol: NV_BACKKEY6
   Definitions
      At line 793 in file MKL05Z4.s
   Uses
      None
Comment: NV_BACKKEY6 unused
NV_BACKKEY6_KEY_MASK 000000FF

Symbol: NV_BACKKEY6_KEY_MASK
   Definitions
      At line 824 in file MKL05Z4.s
   Uses
      None
Comment: NV_BACKKEY6_KEY_MASK unused



ARM Macro Assembler    Page 85 Alphabetic symbol ordering
Absolute symbols

NV_BACKKEY6_KEY_SHIFT 00000000

Symbol: NV_BACKKEY6_KEY_SHIFT
   Definitions
      At line 825 in file MKL05Z4.s
   Uses
      None
Comment: NV_BACKKEY6_KEY_SHIFT unused
NV_BACKKEY6_OFFSET 00000005

Symbol: NV_BACKKEY6_OFFSET
   Definitions
      At line 779 in file MKL05Z4.s
   Uses
      At line 793 in file MKL05Z4.s
Comment: NV_BACKKEY6_OFFSET used once
NV_BACKKEY7 00000404

Symbol: NV_BACKKEY7
   Definitions
      At line 792 in file MKL05Z4.s
   Uses
      None
Comment: NV_BACKKEY7 unused
NV_BACKKEY7_KEY_MASK 000000FF

Symbol: NV_BACKKEY7_KEY_MASK
   Definitions
      At line 820 in file MKL05Z4.s
   Uses
      None
Comment: NV_BACKKEY7_KEY_MASK unused
NV_BACKKEY7_KEY_SHIFT 00000000

Symbol: NV_BACKKEY7_KEY_SHIFT
   Definitions
      At line 821 in file MKL05Z4.s
   Uses
      None
Comment: NV_BACKKEY7_KEY_SHIFT unused
NV_BACKKEY7_OFFSET 00000004




ARM Macro Assembler    Page 86 Alphabetic symbol ordering
Absolute symbols

Symbol: NV_BACKKEY7_OFFSET
   Definitions
      At line 778 in file MKL05Z4.s
   Uses
      At line 792 in file MKL05Z4.s
Comment: NV_BACKKEY7_OFFSET used once
NV_BASE 00000400

Symbol: NV_BASE
   Definitions
      At line 773 in file MKL05Z4.s
   Uses
      At line 788 in file MKL05Z4.s
      At line 789 in file MKL05Z4.s
      At line 790 in file MKL05Z4.s
      At line 791 in file MKL05Z4.s
      At line 792 in file MKL05Z4.s
      At line 793 in file MKL05Z4.s
      At line 794 in file MKL05Z4.s
      At line 795 in file MKL05Z4.s
      At line 796 in file MKL05Z4.s
      At line 797 in file MKL05Z4.s
      At line 798 in file MKL05Z4.s
      At line 799 in file MKL05Z4.s
      At line 800 in file MKL05Z4.s
      At line 801 in file MKL05Z4.s

NV_FOPT 0000040D

Symbol: NV_FOPT
   Definitions
      At line 801 in file MKL05Z4.s
   Uses
      None
Comment: NV_FOPT unused
NV_FOPT_FAST_INIT_MASK 00000020

Symbol: NV_FOPT_FAST_INIT_MASK
   Definitions
      At line 882 in file MKL05Z4.s
   Uses
      None



ARM Macro Assembler    Page 87 Alphabetic symbol ordering
Absolute symbols

Comment: NV_FOPT_FAST_INIT_MASK unused
NV_FOPT_FAST_INIT_SHIFT 00000005

Symbol: NV_FOPT_FAST_INIT_SHIFT
   Definitions
      At line 883 in file MKL05Z4.s
   Uses
      None
Comment: NV_FOPT_FAST_INIT_SHIFT unused
NV_FOPT_LPBOOT0_MASK 00000001

Symbol: NV_FOPT_LPBOOT0_MASK
   Definitions
      At line 874 in file MKL05Z4.s
   Uses
      None
Comment: NV_FOPT_LPBOOT0_MASK unused
NV_FOPT_LPBOOT0_SHIFT 00000000

Symbol: NV_FOPT_LPBOOT0_SHIFT
   Definitions
      At line 875 in file MKL05Z4.s
   Uses
      None
Comment: NV_FOPT_LPBOOT0_SHIFT unused
NV_FOPT_LPBOOT1_MASK 00000010

Symbol: NV_FOPT_LPBOOT1_MASK
   Definitions
      At line 880 in file MKL05Z4.s
   Uses
      None
Comment: NV_FOPT_LPBOOT1_MASK unused
NV_FOPT_LPBOOT1_SHIFT 00000004

Symbol: NV_FOPT_LPBOOT1_SHIFT
   Definitions
      At line 881 in file MKL05Z4.s
   Uses
      None
Comment: NV_FOPT_LPBOOT1_SHIFT unused
NV_FOPT_NMI_DIS_MASK 00000004



ARM Macro Assembler    Page 88 Alphabetic symbol ordering
Absolute symbols


Symbol: NV_FOPT_NMI_DIS_MASK
   Definitions
      At line 876 in file MKL05Z4.s
   Uses
      None
Comment: NV_FOPT_NMI_DIS_MASK unused
NV_FOPT_NMI_DIS_SHIFT 00000002

Symbol: NV_FOPT_NMI_DIS_SHIFT
   Definitions
      At line 877 in file MKL05Z4.s
   Uses
      None
Comment: NV_FOPT_NMI_DIS_SHIFT unused
NV_FOPT_OFFSET 0000000D

Symbol: NV_FOPT_OFFSET
   Definitions
      At line 787 in file MKL05Z4.s
   Uses
      At line 801 in file MKL05Z4.s
Comment: NV_FOPT_OFFSET used once
NV_FOPT_RESET_PIN_CFG_MASK 00000008

Symbol: NV_FOPT_RESET_PIN_CFG_MASK
   Definitions
      At line 878 in file MKL05Z4.s
   Uses
      None
Comment: NV_FOPT_RESET_PIN_CFG_MASK unused
NV_FOPT_RESET_PIN_CFG_SHIFT 00000003

Symbol: NV_FOPT_RESET_PIN_CFG_SHIFT
   Definitions
      At line 879 in file MKL05Z4.s
   Uses
      None
Comment: NV_FOPT_RESET_PIN_CFG_SHIFT unused
NV_FPROT0 0000040B

Symbol: NV_FPROT0



ARM Macro Assembler    Page 89 Alphabetic symbol ordering
Absolute symbols

   Definitions
      At line 799 in file MKL05Z4.s
   Uses
      None
Comment: NV_FPROT0 unused
NV_FPROT0_OFFSET 0000000B

Symbol: NV_FPROT0_OFFSET
   Definitions
      At line 785 in file MKL05Z4.s
   Uses
      At line 799 in file MKL05Z4.s
Comment: NV_FPROT0_OFFSET used once
NV_FPROT0_PROT_MASK 000000FF

Symbol: NV_FPROT0_PROT_MASK
   Definitions
      At line 848 in file MKL05Z4.s
   Uses
      None
Comment: NV_FPROT0_PROT_MASK unused
NV_FPROT0_PROT_SHIFT 00000000

Symbol: NV_FPROT0_PROT_SHIFT
   Definitions
      At line 849 in file MKL05Z4.s
   Uses
      None
Comment: NV_FPROT0_PROT_SHIFT unused
NV_FPROT1 0000040A

Symbol: NV_FPROT1
   Definitions
      At line 798 in file MKL05Z4.s
   Uses
      None
Comment: NV_FPROT1 unused
NV_FPROT1_OFFSET 0000000A

Symbol: NV_FPROT1_OFFSET
   Definitions
      At line 784 in file MKL05Z4.s



ARM Macro Assembler    Page 90 Alphabetic symbol ordering
Absolute symbols

   Uses
      At line 798 in file MKL05Z4.s
Comment: NV_FPROT1_OFFSET used once
NV_FPROT1_PROT_MASK 000000FF

Symbol: NV_FPROT1_PROT_MASK
   Definitions
      At line 844 in file MKL05Z4.s
   Uses
      None
Comment: NV_FPROT1_PROT_MASK unused
NV_FPROT1_PROT_SHIFT 00000000

Symbol: NV_FPROT1_PROT_SHIFT
   Definitions
      At line 845 in file MKL05Z4.s
   Uses
      None
Comment: NV_FPROT1_PROT_SHIFT unused
NV_FPROT2 00000409

Symbol: NV_FPROT2
   Definitions
      At line 797 in file MKL05Z4.s
   Uses
      None
Comment: NV_FPROT2 unused
NV_FPROT2_OFFSET 00000009

Symbol: NV_FPROT2_OFFSET
   Definitions
      At line 783 in file MKL05Z4.s
   Uses
      At line 797 in file MKL05Z4.s
Comment: NV_FPROT2_OFFSET used once
NV_FPROT2_PROT_MASK 000000FF

Symbol: NV_FPROT2_PROT_MASK
   Definitions
      At line 840 in file MKL05Z4.s
   Uses
      None



ARM Macro Assembler    Page 91 Alphabetic symbol ordering
Absolute symbols

Comment: NV_FPROT2_PROT_MASK unused
NV_FPROT2_PROT_SHIFT 00000000

Symbol: NV_FPROT2_PROT_SHIFT
   Definitions
      At line 841 in file MKL05Z4.s
   Uses
      None
Comment: NV_FPROT2_PROT_SHIFT unused
NV_FPROT3 00000408

Symbol: NV_FPROT3
   Definitions
      At line 796 in file MKL05Z4.s
   Uses
      None
Comment: NV_FPROT3 unused
NV_FPROT3_OFFSET 00000008

Symbol: NV_FPROT3_OFFSET
   Definitions
      At line 782 in file MKL05Z4.s
   Uses
      At line 796 in file MKL05Z4.s
Comment: NV_FPROT3_OFFSET used once
NV_FPROT3_PROT_MASK 000000FF

Symbol: NV_FPROT3_PROT_MASK
   Definitions
      At line 836 in file MKL05Z4.s
   Uses
      None
Comment: NV_FPROT3_PROT_MASK unused
NV_FPROT3_PROT_SHIFT 00000000

Symbol: NV_FPROT3_PROT_SHIFT
   Definitions
      At line 837 in file MKL05Z4.s
   Uses
      None
Comment: NV_FPROT3_PROT_SHIFT unused
NV_FSEC 0000040C



ARM Macro Assembler    Page 92 Alphabetic symbol ordering
Absolute symbols


Symbol: NV_FSEC
   Definitions
      At line 800 in file MKL05Z4.s
   Uses
      None
Comment: NV_FSEC unused
NV_FSEC_FSLACC_MASK 0000000C

Symbol: NV_FSEC_FSLACC_MASK
   Definitions
      At line 866 in file MKL05Z4.s
   Uses
      None
Comment: NV_FSEC_FSLACC_MASK unused
NV_FSEC_FSLACC_SHIFT 00000002

Symbol: NV_FSEC_FSLACC_SHIFT
   Definitions
      At line 867 in file MKL05Z4.s
   Uses
      None
Comment: NV_FSEC_FSLACC_SHIFT unused
NV_FSEC_KEYEN_MASK 000000C0

Symbol: NV_FSEC_KEYEN_MASK
   Definitions
      At line 870 in file MKL05Z4.s
   Uses
      None
Comment: NV_FSEC_KEYEN_MASK unused
NV_FSEC_KEYEN_SHIFT 00000006

Symbol: NV_FSEC_KEYEN_SHIFT
   Definitions
      At line 871 in file MKL05Z4.s
   Uses
      None
Comment: NV_FSEC_KEYEN_SHIFT unused
NV_FSEC_MEEN_MASK 00000030

Symbol: NV_FSEC_MEEN_MASK



ARM Macro Assembler    Page 93 Alphabetic symbol ordering
Absolute symbols

   Definitions
      At line 868 in file MKL05Z4.s
   Uses
      None
Comment: NV_FSEC_MEEN_MASK unused
NV_FSEC_MEEN_SHIFT 00000004

Symbol: NV_FSEC_MEEN_SHIFT
   Definitions
      At line 869 in file MKL05Z4.s
   Uses
      None
Comment: NV_FSEC_MEEN_SHIFT unused
NV_FSEC_OFFSET 0000000C

Symbol: NV_FSEC_OFFSET
   Definitions
      At line 786 in file MKL05Z4.s
   Uses
      At line 800 in file MKL05Z4.s
Comment: NV_FSEC_OFFSET used once
NV_FSEC_SEC_MASK 00000003

Symbol: NV_FSEC_SEC_MASK
   Definitions
      At line 864 in file MKL05Z4.s
   Uses
      None
Comment: NV_FSEC_SEC_MASK unused
NV_FSEC_SEC_SHIFT 00000000

Symbol: NV_FSEC_SEC_SHIFT
   Definitions
      At line 865 in file MKL05Z4.s
   Uses
      None
Comment: NV_FSEC_SEC_SHIFT unused
NonMaskableInt_IRQn FFFFFFF2

Symbol: NonMaskableInt_IRQn
   Definitions
      At line 155 in file MKL05Z4.s



ARM Macro Assembler    Page 94 Alphabetic symbol ordering
Absolute symbols

   Uses
      None
Comment: NonMaskableInt_IRQn unused
OSC0_BASE 40065000

Symbol: OSC0_BASE
   Definitions
      At line 1069 in file MKL05Z4.s
   Uses
      At line 1071 in file MKL05Z4.s
Comment: OSC0_BASE used once
OSC0_CR 40065000

Symbol: OSC0_CR
   Definitions
      At line 1071 in file MKL05Z4.s
   Uses
      None
Comment: OSC0_CR unused
OSC0_CR_OFFSET 00000000

Symbol: OSC0_CR_OFFSET
   Definitions
      At line 1070 in file MKL05Z4.s
   Uses
      At line 1071 in file MKL05Z4.s
Comment: OSC0_CR_OFFSET used once
OSC_CR_ERCLKEN_MASK 00000080

Symbol: OSC_CR_ERCLKEN_MASK
   Definitions
      At line 1092 in file MKL05Z4.s
   Uses
      None
Comment: OSC_CR_ERCLKEN_MASK unused
OSC_CR_ERCLKEN_SHIFT 00000007

Symbol: OSC_CR_ERCLKEN_SHIFT
   Definitions
      At line 1093 in file MKL05Z4.s
   Uses
      None



ARM Macro Assembler    Page 95 Alphabetic symbol ordering
Absolute symbols

Comment: OSC_CR_ERCLKEN_SHIFT unused
OSC_CR_EREFSTEN_MASK 00000020

Symbol: OSC_CR_EREFSTEN_MASK
   Definitions
      At line 1090 in file MKL05Z4.s
   Uses
      None
Comment: OSC_CR_EREFSTEN_MASK unused
OSC_CR_EREFSTEN_SHIFT 00000005

Symbol: OSC_CR_EREFSTEN_SHIFT
   Definitions
      At line 1091 in file MKL05Z4.s
   Uses
      None
Comment: OSC_CR_EREFSTEN_SHIFT unused
OSC_CR_SC16P_MASK 00000001

Symbol: OSC_CR_SC16P_MASK
   Definitions
      At line 1082 in file MKL05Z4.s
   Uses
      None
Comment: OSC_CR_SC16P_MASK unused
OSC_CR_SC16P_SHIFT 00000000

Symbol: OSC_CR_SC16P_SHIFT
   Definitions
      At line 1083 in file MKL05Z4.s
   Uses
      None
Comment: OSC_CR_SC16P_SHIFT unused
OSC_CR_SC2P_MASK 00000008

Symbol: OSC_CR_SC2P_MASK
   Definitions
      At line 1088 in file MKL05Z4.s
   Uses
      None
Comment: OSC_CR_SC2P_MASK unused
OSC_CR_SC2P_SHIFT 00000003



ARM Macro Assembler    Page 96 Alphabetic symbol ordering
Absolute symbols


Symbol: OSC_CR_SC2P_SHIFT
   Definitions
      At line 1089 in file MKL05Z4.s
   Uses
      None
Comment: OSC_CR_SC2P_SHIFT unused
OSC_CR_SC4P_MASK 00000004

Symbol: OSC_CR_SC4P_MASK
   Definitions
      At line 1086 in file MKL05Z4.s
   Uses
      None
Comment: OSC_CR_SC4P_MASK unused
OSC_CR_SC4P_SHIFT 00000002

Symbol: OSC_CR_SC4P_SHIFT
   Definitions
      At line 1087 in file MKL05Z4.s
   Uses
      None
Comment: OSC_CR_SC4P_SHIFT unused
OSC_CR_SC8P_MASK 00000002

Symbol: OSC_CR_SC8P_MASK
   Definitions
      At line 1084 in file MKL05Z4.s
   Uses
      None
Comment: OSC_CR_SC8P_MASK unused
OSC_CR_SC8P_SHIFT 00000001

Symbol: OSC_CR_SC8P_SHIFT
   Definitions
      At line 1085 in file MKL05Z4.s
   Uses
      None
Comment: OSC_CR_SC8P_SHIFT unused
OUT_PTR 00000004

Symbol: OUT_PTR



ARM Macro Assembler    Page 97 Alphabetic symbol ordering
Absolute symbols

   Definitions
      At line 28 in file lab10.s
   Uses
      At line 739 in file lab10.s
      At line 777 in file lab10.s
      At line 800 in file lab10.s
      At line 807 in file lab10.s

PIT_BASE 40037000

Symbol: PIT_BASE
   Definitions
      At line 1096 in file MKL05Z4.s
   Uses
      At line 1114 in file MKL05Z4.s
      At line 1115 in file MKL05Z4.s
      At line 1116 in file MKL05Z4.s
      At line 1117 in file MKL05Z4.s
      At line 1118 in file MKL05Z4.s
      At line 1119 in file MKL05Z4.s
      At line 1120 in file MKL05Z4.s
      At line 1121 in file MKL05Z4.s
      At line 1122 in file MKL05Z4.s
      At line 1123 in file MKL05Z4.s
      At line 1124 in file MKL05Z4.s
      At line 457 in file lab10.s

PIT_CH0_BASE 40037100

Symbol: PIT_CH0_BASE
   Definitions
      At line 1097 in file MKL05Z4.s
   Uses
      At line 450 in file lab10.s
      At line 465 in file lab10.s
      At line 471 in file lab10.s
      At line 524 in file lab10.s

PIT_CH1_BASE 40037110

Symbol: PIT_CH1_BASE
   Definitions



ARM Macro Assembler    Page 98 Alphabetic symbol ordering
Absolute symbols

      At line 1098 in file MKL05Z4.s
   Uses
      None
Comment: PIT_CH1_BASE unused
PIT_CVAL0 40037104

Symbol: PIT_CVAL0
   Definitions
      At line 1118 in file MKL05Z4.s
   Uses
      None
Comment: PIT_CVAL0 unused
PIT_CVAL0_OFFSET 00000104

Symbol: PIT_CVAL0_OFFSET
   Definitions
      At line 1107 in file MKL05Z4.s
   Uses
      At line 1118 in file MKL05Z4.s
Comment: PIT_CVAL0_OFFSET used once
PIT_CVAL1 40037114

Symbol: PIT_CVAL1
   Definitions
      At line 1122 in file MKL05Z4.s
   Uses
      None
Comment: PIT_CVAL1 unused
PIT_CVAL1_OFFSET 00000114

Symbol: PIT_CVAL1_OFFSET
   Definitions
      At line 1111 in file MKL05Z4.s
   Uses
      At line 1122 in file MKL05Z4.s
Comment: PIT_CVAL1_OFFSET used once
PIT_CVAL_OFFSET 00000004

Symbol: PIT_CVAL_OFFSET
   Definitions
      At line 1100 in file MKL05Z4.s
   Uses



ARM Macro Assembler    Page 99 Alphabetic symbol ordering
Absolute symbols

      None
Comment: PIT_CVAL_OFFSET unused
PIT_IPR E000E414

Symbol: PIT_IPR
   Definitions
      At line 936 in file MKL05Z4.s
   Uses
      At line 486 in file lab10.s
Comment: PIT_IPR used once
PIT_IRQ_MASK 00400000

Symbol: PIT_IRQ_MASK
   Definitions
      At line 1006 in file MKL05Z4.s
   Uses
      At line 59 in file lab10.s
      At line 69 in file lab10.s
      At line 89 in file lab10.s
      At line 482 in file lab10.s

PIT_IRQ_PRIORITY 00000000

Symbol: PIT_IRQ_PRIORITY
   Definitions
      At line 75 in file lab10.s
   Uses
      At line 77 in file lab10.s
      At line 487 in file lab10.s

PIT_IRQn 00000016

Symbol: PIT_IRQn
   Definitions
      At line 185 in file MKL05Z4.s
   Uses
      At line 1006 in file MKL05Z4.s
Comment: PIT_IRQn used once
PIT_LDVAL0 40037100

Symbol: PIT_LDVAL0
   Definitions



ARM Macro Assembler    Page 100 Alphabetic symbol ordering
Absolute symbols

      At line 1117 in file MKL05Z4.s
   Uses
      None
Comment: PIT_LDVAL0 unused
PIT_LDVAL0_OFFSET 00000100

Symbol: PIT_LDVAL0_OFFSET
   Definitions
      At line 1106 in file MKL05Z4.s
   Uses
      At line 1117 in file MKL05Z4.s
Comment: PIT_LDVAL0_OFFSET used once
PIT_LDVAL1 40037110

Symbol: PIT_LDVAL1
   Definitions
      At line 1121 in file MKL05Z4.s
   Uses
      None
Comment: PIT_LDVAL1 unused
PIT_LDVAL1_OFFSET 00000110

Symbol: PIT_LDVAL1_OFFSET
   Definitions
      At line 1110 in file MKL05Z4.s
   Uses
      At line 1121 in file MKL05Z4.s
Comment: PIT_LDVAL1_OFFSET used once
PIT_LDVAL_10ms 0003A8F5

Symbol: PIT_LDVAL_10ms
   Definitions
      At line 100 in file lab10.s
   Uses
      At line 466 in file lab10.s
Comment: PIT_LDVAL_10ms used once
PIT_LDVAL_OFFSET 00000000

Symbol: PIT_LDVAL_OFFSET
   Definitions
      At line 1099 in file MKL05Z4.s
   Uses



ARM Macro Assembler    Page 101 Alphabetic symbol ordering
Absolute symbols

      At line 468 in file lab10.s
Comment: PIT_LDVAL_OFFSET used once
PIT_LTMR64H 400370E0

Symbol: PIT_LTMR64H
   Definitions
      At line 1115 in file MKL05Z4.s
   Uses
      None
Comment: PIT_LTMR64H unused
PIT_LTMR64H_OFFSET 000000E0

Symbol: PIT_LTMR64H_OFFSET
   Definitions
      At line 1104 in file MKL05Z4.s
   Uses
      At line 1115 in file MKL05Z4.s
Comment: PIT_LTMR64H_OFFSET used once
PIT_LTMR64L 400370E4

Symbol: PIT_LTMR64L
   Definitions
      At line 1116 in file MKL05Z4.s
   Uses
      None
Comment: PIT_LTMR64L unused
PIT_LTMR64L_OFFSET 000000E4

Symbol: PIT_LTMR64L_OFFSET
   Definitions
      At line 1105 in file MKL05Z4.s
   Uses
      At line 1116 in file MKL05Z4.s
Comment: PIT_LTMR64L_OFFSET used once
PIT_MCR 40037000

Symbol: PIT_MCR
   Definitions
      At line 1114 in file MKL05Z4.s
   Uses
      None
Comment: PIT_MCR unused



ARM Macro Assembler    Page 102 Alphabetic symbol ordering
Absolute symbols

PIT_MCR_EN_FRZ 00000001

Symbol: PIT_MCR_EN_FRZ
   Definitions
      At line 107 in file lab10.s
   Uses
      At line 460 in file lab10.s
Comment: PIT_MCR_EN_FRZ used once
PIT_MCR_FRZ_MASK 00000001

Symbol: PIT_MCR_FRZ_MASK
   Definitions
      At line 1153 in file MKL05Z4.s
   Uses
      At line 107 in file lab10.s
Comment: PIT_MCR_FRZ_MASK used once
PIT_MCR_FRZ_SHIFT 00000000

Symbol: PIT_MCR_FRZ_SHIFT
   Definitions
      At line 1154 in file MKL05Z4.s
   Uses
      None
Comment: PIT_MCR_FRZ_SHIFT unused
PIT_MCR_MDIS_MASK 00000002

Symbol: PIT_MCR_MDIS_MASK
   Definitions
      At line 1151 in file MKL05Z4.s
   Uses
      None
Comment: PIT_MCR_MDIS_MASK unused
PIT_MCR_MDIS_SHIFT 00000001

Symbol: PIT_MCR_MDIS_SHIFT
   Definitions
      At line 1152 in file MKL05Z4.s
   Uses
      None
Comment: PIT_MCR_MDIS_SHIFT unused
PIT_MCR_OFFSET 00000000




ARM Macro Assembler    Page 103 Alphabetic symbol ordering
Absolute symbols

Symbol: PIT_MCR_OFFSET
   Definitions
      At line 1103 in file MKL05Z4.s
   Uses
      At line 1114 in file MKL05Z4.s
      At line 462 in file lab10.s

PIT_PRI_POS 00000016

Symbol: PIT_PRI_POS
   Definitions
      At line 972 in file MKL05Z4.s
   Uses
      At line 76 in file lab10.s
      At line 77 in file lab10.s
      At line 487 in file lab10.s

PIT_TCTRL0 40037108

Symbol: PIT_TCTRL0
   Definitions
      At line 1119 in file MKL05Z4.s
   Uses
      None
Comment: PIT_TCTRL0 unused
PIT_TCTRL0_OFFSET 00000108

Symbol: PIT_TCTRL0_OFFSET
   Definitions
      At line 1108 in file MKL05Z4.s
   Uses
      At line 1119 in file MKL05Z4.s
Comment: PIT_TCTRL0_OFFSET used once
PIT_TCTRL1 40037118

Symbol: PIT_TCTRL1
   Definitions
      At line 1123 in file MKL05Z4.s
   Uses
      None
Comment: PIT_TCTRL1 unused
PIT_TCTRL1_OFFSET 00000118



ARM Macro Assembler    Page 104 Alphabetic symbol ordering
Absolute symbols


Symbol: PIT_TCTRL1_OFFSET
   Definitions
      At line 1112 in file MKL05Z4.s
   Uses
      At line 1123 in file MKL05Z4.s
Comment: PIT_TCTRL1_OFFSET used once
PIT_TCTRL_CHN_MASK 00000004

Symbol: PIT_TCTRL_CHN_MASK
   Definitions
      At line 1164 in file MKL05Z4.s
   Uses
      None
Comment: PIT_TCTRL_CHN_MASK unused
PIT_TCTRL_CHN_SHIFT 00000002

Symbol: PIT_TCTRL_CHN_SHIFT
   Definitions
      At line 1165 in file MKL05Z4.s
   Uses
      None
Comment: PIT_TCTRL_CHN_SHIFT unused
PIT_TCTRL_CH_IE 00000003

Symbol: PIT_TCTRL_CH_IE
   Definitions
      At line 113 in file lab10.s
   Uses
      At line 474 in file lab10.s
Comment: PIT_TCTRL_CH_IE used once
PIT_TCTRL_OFFSET 00000008

Symbol: PIT_TCTRL_OFFSET
   Definitions
      At line 1101 in file MKL05Z4.s
   Uses
      At line 452 in file lab10.s
      At line 454 in file lab10.s
      At line 475 in file lab10.s

PIT_TCTRL_TEN_MASK 00000001



ARM Macro Assembler    Page 105 Alphabetic symbol ordering
Absolute symbols


Symbol: PIT_TCTRL_TEN_MASK
   Definitions
      At line 1168 in file MKL05Z4.s
   Uses
      At line 113 in file lab10.s
      At line 451 in file lab10.s

PIT_TCTRL_TEN_SHIFT 00000000

Symbol: PIT_TCTRL_TEN_SHIFT
   Definitions
      At line 1169 in file MKL05Z4.s
   Uses
      None
Comment: PIT_TCTRL_TEN_SHIFT unused
PIT_TCTRL_TIE_MASK 00000002

Symbol: PIT_TCTRL_TIE_MASK
   Definitions
      At line 1166 in file MKL05Z4.s
   Uses
      At line 113 in file lab10.s
Comment: PIT_TCTRL_TIE_MASK used once
PIT_TCTRL_TIE_SHIFT 00000001

Symbol: PIT_TCTRL_TIE_SHIFT
   Definitions
      At line 1167 in file MKL05Z4.s
   Uses
      None
Comment: PIT_TCTRL_TIE_SHIFT unused
PIT_TFLG0 4003710C

Symbol: PIT_TFLG0
   Definitions
      At line 1120 in file MKL05Z4.s
   Uses
      None
Comment: PIT_TFLG0 unused
PIT_TFLG0_OFFSET 0000010C




ARM Macro Assembler    Page 106 Alphabetic symbol ordering
Absolute symbols

Symbol: PIT_TFLG0_OFFSET
   Definitions
      At line 1109 in file MKL05Z4.s
   Uses
      At line 1120 in file MKL05Z4.s
Comment: PIT_TFLG0_OFFSET used once
PIT_TFLG1 4003711C

Symbol: PIT_TFLG1
   Definitions
      At line 1124 in file MKL05Z4.s
   Uses
      None
Comment: PIT_TFLG1 unused
PIT_TFLG1_OFFSET 0000011C

Symbol: PIT_TFLG1_OFFSET
   Definitions
      At line 1113 in file MKL05Z4.s
   Uses
      At line 1124 in file MKL05Z4.s
Comment: PIT_TFLG1_OFFSET used once
PIT_TFLG_OFFSET 0000000C

Symbol: PIT_TFLG_OFFSET
   Definitions
      At line 1102 in file MKL05Z4.s
   Uses
      At line 527 in file lab10.s
Comment: PIT_TFLG_OFFSET used once
PIT_TFLG_TIF_MASK 00000001

Symbol: PIT_TFLG_TIF_MASK
   Definitions
      At line 1175 in file MKL05Z4.s
   Uses
      At line 525 in file lab10.s
Comment: PIT_TFLG_TIF_MASK used once
PIT_TFLG_TIF_SHIFT 00000000

Symbol: PIT_TFLG_TIF_SHIFT
   Definitions



ARM Macro Assembler    Page 107 Alphabetic symbol ordering
Absolute symbols

      At line 1176 in file MKL05Z4.s
   Uses
      None
Comment: PIT_TFLG_TIF_SHIFT unused
PIT_Vector 00000026

Symbol: PIT_Vector
   Definitions
      At line 1057 in file MKL05Z4.s
   Uses
      None
Comment: PIT_Vector unused
PORTA_BASE 40049000

Symbol: PORTA_BASE
   Definitions
      At line 1179 in file MKL05Z4.s
   Uses
      At line 1215 in file MKL05Z4.s
      At line 1216 in file MKL05Z4.s
      At line 1217 in file MKL05Z4.s
      At line 1218 in file MKL05Z4.s
      At line 1219 in file MKL05Z4.s
      At line 1220 in file MKL05Z4.s
      At line 1221 in file MKL05Z4.s
      At line 1222 in file MKL05Z4.s
      At line 1223 in file MKL05Z4.s
      At line 1224 in file MKL05Z4.s
      At line 1225 in file MKL05Z4.s
      At line 1226 in file MKL05Z4.s
      At line 1227 in file MKL05Z4.s
      At line 1228 in file MKL05Z4.s
      At line 1229 in file MKL05Z4.s
      At line 1230 in file MKL05Z4.s
      At line 1231 in file MKL05Z4.s
      At line 1232 in file MKL05Z4.s
      At line 1233 in file MKL05Z4.s
      At line 1234 in file MKL05Z4.s
      At line 1235 in file MKL05Z4.s
      At line 1236 in file MKL05Z4.s
      At line 1237 in file MKL05Z4.s
      At line 1238 in file MKL05Z4.s



ARM Macro Assembler    Page 108 Alphabetic symbol ordering
Absolute symbols

      At line 1239 in file MKL05Z4.s
      At line 1240 in file MKL05Z4.s
      At line 1241 in file MKL05Z4.s
      At line 1242 in file MKL05Z4.s
      At line 1243 in file MKL05Z4.s
      At line 1244 in file MKL05Z4.s
      At line 1245 in file MKL05Z4.s
      At line 1246 in file MKL05Z4.s
      At line 1247 in file MKL05Z4.s
      At line 1248 in file MKL05Z4.s
      At line 1249 in file MKL05Z4.s

PORTA_GPCHR 40049084

Symbol: PORTA_GPCHR
   Definitions
      At line 1248 in file MKL05Z4.s
   Uses
      None
Comment: PORTA_GPCHR unused
PORTA_GPCHR_OFFSET 00000084

Symbol: PORTA_GPCHR_OFFSET
   Definitions
      At line 1213 in file MKL05Z4.s
   Uses
      At line 1248 in file MKL05Z4.s
Comment: PORTA_GPCHR_OFFSET used once
PORTA_GPCLR 40049080

Symbol: PORTA_GPCLR
   Definitions
      At line 1247 in file MKL05Z4.s
   Uses
      None
Comment: PORTA_GPCLR unused
PORTA_GPCLR_OFFSET 00000080

Symbol: PORTA_GPCLR_OFFSET
   Definitions
      At line 1212 in file MKL05Z4.s
   Uses



ARM Macro Assembler    Page 109 Alphabetic symbol ordering
Absolute symbols

      At line 1247 in file MKL05Z4.s
Comment: PORTA_GPCLR_OFFSET used once
PORTA_IPR E000E41C

Symbol: PORTA_IPR
   Definitions
      At line 944 in file MKL05Z4.s
   Uses
      None
Comment: PORTA_IPR unused
PORTA_IRQ_MASK 40000000

Symbol: PORTA_IRQ_MASK
   Definitions
      At line 1014 in file MKL05Z4.s
   Uses
      None
Comment: PORTA_IRQ_MASK unused
PORTA_IRQn 0000001E

Symbol: PORTA_IRQn
   Definitions
      At line 193 in file MKL05Z4.s
   Uses
      At line 1014 in file MKL05Z4.s
Comment: PORTA_IRQn used once
PORTA_ISFR 400490A0

Symbol: PORTA_ISFR
   Definitions
      At line 1249 in file MKL05Z4.s
   Uses
      None
Comment: PORTA_ISFR unused
PORTA_ISFR_OFFSET 000000A0

Symbol: PORTA_ISFR_OFFSET
   Definitions
      At line 1214 in file MKL05Z4.s
   Uses
      At line 1249 in file MKL05Z4.s
Comment: PORTA_ISFR_OFFSET used once



ARM Macro Assembler    Page 110 Alphabetic symbol ordering
Absolute symbols

PORTA_PCR0 40049000

Symbol: PORTA_PCR0
   Definitions
      At line 1215 in file MKL05Z4.s
   Uses
      None
Comment: PORTA_PCR0 unused
PORTA_PCR0_OFFSET 00000000

Symbol: PORTA_PCR0_OFFSET
   Definitions
      At line 1180 in file MKL05Z4.s
   Uses
      At line 1215 in file MKL05Z4.s
Comment: PORTA_PCR0_OFFSET used once
PORTA_PCR1 40049004

Symbol: PORTA_PCR1
   Definitions
      At line 1216 in file MKL05Z4.s
   Uses
      None
Comment: PORTA_PCR1 unused
PORTA_PCR10 40049028

Symbol: PORTA_PCR10
   Definitions
      At line 1225 in file MKL05Z4.s
   Uses
      None
Comment: PORTA_PCR10 unused
PORTA_PCR10_OFFSET 00000028

Symbol: PORTA_PCR10_OFFSET
   Definitions
      At line 1190 in file MKL05Z4.s
   Uses
      At line 1225 in file MKL05Z4.s
Comment: PORTA_PCR10_OFFSET used once
PORTA_PCR11 4004902C




ARM Macro Assembler    Page 111 Alphabetic symbol ordering
Absolute symbols

Symbol: PORTA_PCR11
   Definitions
      At line 1226 in file MKL05Z4.s
   Uses
      None
Comment: PORTA_PCR11 unused
PORTA_PCR11_OFFSET 0000002C

Symbol: PORTA_PCR11_OFFSET
   Definitions
      At line 1191 in file MKL05Z4.s
   Uses
      At line 1226 in file MKL05Z4.s
Comment: PORTA_PCR11_OFFSET used once
PORTA_PCR12 40049030

Symbol: PORTA_PCR12
   Definitions
      At line 1227 in file MKL05Z4.s
   Uses
      None
Comment: PORTA_PCR12 unused
PORTA_PCR12_OFFSET 00000030

Symbol: PORTA_PCR12_OFFSET
   Definitions
      At line 1192 in file MKL05Z4.s
   Uses
      At line 1227 in file MKL05Z4.s
Comment: PORTA_PCR12_OFFSET used once
PORTA_PCR13 40049034

Symbol: PORTA_PCR13
   Definitions
      At line 1228 in file MKL05Z4.s
   Uses
      None
Comment: PORTA_PCR13 unused
PORTA_PCR13_OFFSET 00000034

Symbol: PORTA_PCR13_OFFSET
   Definitions



ARM Macro Assembler    Page 112 Alphabetic symbol ordering
Absolute symbols

      At line 1193 in file MKL05Z4.s
   Uses
      At line 1228 in file MKL05Z4.s
Comment: PORTA_PCR13_OFFSET used once
PORTA_PCR14 40049038

Symbol: PORTA_PCR14
   Definitions
      At line 1229 in file MKL05Z4.s
   Uses
      None
Comment: PORTA_PCR14 unused
PORTA_PCR14_OFFSET 00000038

Symbol: PORTA_PCR14_OFFSET
   Definitions
      At line 1194 in file MKL05Z4.s
   Uses
      At line 1229 in file MKL05Z4.s
Comment: PORTA_PCR14_OFFSET used once
PORTA_PCR15 4004903C

Symbol: PORTA_PCR15
   Definitions
      At line 1230 in file MKL05Z4.s
   Uses
      None
Comment: PORTA_PCR15 unused
PORTA_PCR15_OFFSET 0000003C

Symbol: PORTA_PCR15_OFFSET
   Definitions
      At line 1195 in file MKL05Z4.s
   Uses
      At line 1230 in file MKL05Z4.s
Comment: PORTA_PCR15_OFFSET used once
PORTA_PCR16 40049040

Symbol: PORTA_PCR16
   Definitions
      At line 1231 in file MKL05Z4.s
   Uses



ARM Macro Assembler    Page 113 Alphabetic symbol ordering
Absolute symbols

      None
Comment: PORTA_PCR16 unused
PORTA_PCR16_OFFSET 00000040

Symbol: PORTA_PCR16_OFFSET
   Definitions
      At line 1196 in file MKL05Z4.s
   Uses
      At line 1231 in file MKL05Z4.s
Comment: PORTA_PCR16_OFFSET used once
PORTA_PCR17 40049044

Symbol: PORTA_PCR17
   Definitions
      At line 1232 in file MKL05Z4.s
   Uses
      None
Comment: PORTA_PCR17 unused
PORTA_PCR17_OFFSET 00000044

Symbol: PORTA_PCR17_OFFSET
   Definitions
      At line 1197 in file MKL05Z4.s
   Uses
      At line 1232 in file MKL05Z4.s
Comment: PORTA_PCR17_OFFSET used once
PORTA_PCR18 40049048

Symbol: PORTA_PCR18
   Definitions
      At line 1233 in file MKL05Z4.s
   Uses
      None
Comment: PORTA_PCR18 unused
PORTA_PCR18_OFFSET 00000048

Symbol: PORTA_PCR18_OFFSET
   Definitions
      At line 1198 in file MKL05Z4.s
   Uses
      At line 1233 in file MKL05Z4.s
Comment: PORTA_PCR18_OFFSET used once



ARM Macro Assembler    Page 114 Alphabetic symbol ordering
Absolute symbols

PORTA_PCR19 4004904C

Symbol: PORTA_PCR19
   Definitions
      At line 1234 in file MKL05Z4.s
   Uses
      None
Comment: PORTA_PCR19 unused
PORTA_PCR19_OFFSET 0000004C

Symbol: PORTA_PCR19_OFFSET
   Definitions
      At line 1199 in file MKL05Z4.s
   Uses
      At line 1234 in file MKL05Z4.s
Comment: PORTA_PCR19_OFFSET used once
PORTA_PCR1_OFFSET 00000004

Symbol: PORTA_PCR1_OFFSET
   Definitions
      At line 1181 in file MKL05Z4.s
   Uses
      At line 1216 in file MKL05Z4.s
Comment: PORTA_PCR1_OFFSET used once
PORTA_PCR2 40049008

Symbol: PORTA_PCR2
   Definitions
      At line 1217 in file MKL05Z4.s
   Uses
      None
Comment: PORTA_PCR2 unused
PORTA_PCR20 40049050

Symbol: PORTA_PCR20
   Definitions
      At line 1235 in file MKL05Z4.s
   Uses
      None
Comment: PORTA_PCR20 unused
PORTA_PCR20_OFFSET 00000050




ARM Macro Assembler    Page 115 Alphabetic symbol ordering
Absolute symbols

Symbol: PORTA_PCR20_OFFSET
   Definitions
      At line 1200 in file MKL05Z4.s
   Uses
      At line 1235 in file MKL05Z4.s
Comment: PORTA_PCR20_OFFSET used once
PORTA_PCR21 40049054

Symbol: PORTA_PCR21
   Definitions
      At line 1236 in file MKL05Z4.s
   Uses
      None
Comment: PORTA_PCR21 unused
PORTA_PCR21_OFFSET 00000054

Symbol: PORTA_PCR21_OFFSET
   Definitions
      At line 1201 in file MKL05Z4.s
   Uses
      At line 1236 in file MKL05Z4.s
Comment: PORTA_PCR21_OFFSET used once
PORTA_PCR22 40049058

Symbol: PORTA_PCR22
   Definitions
      At line 1237 in file MKL05Z4.s
   Uses
      None
Comment: PORTA_PCR22 unused
PORTA_PCR22_OFFSET 00000058

Symbol: PORTA_PCR22_OFFSET
   Definitions
      At line 1202 in file MKL05Z4.s
   Uses
      At line 1237 in file MKL05Z4.s
Comment: PORTA_PCR22_OFFSET used once
PORTA_PCR23 4004905C

Symbol: PORTA_PCR23
   Definitions



ARM Macro Assembler    Page 116 Alphabetic symbol ordering
Absolute symbols

      At line 1238 in file MKL05Z4.s
   Uses
      None
Comment: PORTA_PCR23 unused
PORTA_PCR23_OFFSET 0000005C

Symbol: PORTA_PCR23_OFFSET
   Definitions
      At line 1203 in file MKL05Z4.s
   Uses
      At line 1238 in file MKL05Z4.s
Comment: PORTA_PCR23_OFFSET used once
PORTA_PCR24 40049060

Symbol: PORTA_PCR24
   Definitions
      At line 1239 in file MKL05Z4.s
   Uses
      None
Comment: PORTA_PCR24 unused
PORTA_PCR24_OFFSET 00000060

Symbol: PORTA_PCR24_OFFSET
   Definitions
      At line 1204 in file MKL05Z4.s
   Uses
      At line 1239 in file MKL05Z4.s
Comment: PORTA_PCR24_OFFSET used once
PORTA_PCR25 40049064

Symbol: PORTA_PCR25
   Definitions
      At line 1240 in file MKL05Z4.s
   Uses
      None
Comment: PORTA_PCR25 unused
PORTA_PCR25_OFFSET 00000064

Symbol: PORTA_PCR25_OFFSET
   Definitions
      At line 1205 in file MKL05Z4.s
   Uses



ARM Macro Assembler    Page 117 Alphabetic symbol ordering
Absolute symbols

      At line 1240 in file MKL05Z4.s
Comment: PORTA_PCR25_OFFSET used once
PORTA_PCR26 40049068

Symbol: PORTA_PCR26
   Definitions
      At line 1241 in file MKL05Z4.s
   Uses
      None
Comment: PORTA_PCR26 unused
PORTA_PCR26_OFFSET 00000068

Symbol: PORTA_PCR26_OFFSET
   Definitions
      At line 1206 in file MKL05Z4.s
   Uses
      At line 1241 in file MKL05Z4.s
Comment: PORTA_PCR26_OFFSET used once
PORTA_PCR27 4004906C

Symbol: PORTA_PCR27
   Definitions
      At line 1242 in file MKL05Z4.s
   Uses
      None
Comment: PORTA_PCR27 unused
PORTA_PCR27_OFFSET 0000006C

Symbol: PORTA_PCR27_OFFSET
   Definitions
      At line 1207 in file MKL05Z4.s
   Uses
      At line 1242 in file MKL05Z4.s
Comment: PORTA_PCR27_OFFSET used once
PORTA_PCR28 40049070

Symbol: PORTA_PCR28
   Definitions
      At line 1243 in file MKL05Z4.s
   Uses
      None
Comment: PORTA_PCR28 unused



ARM Macro Assembler    Page 118 Alphabetic symbol ordering
Absolute symbols

PORTA_PCR28_OFFSET 00000070

Symbol: PORTA_PCR28_OFFSET
   Definitions
      At line 1208 in file MKL05Z4.s
   Uses
      At line 1243 in file MKL05Z4.s
Comment: PORTA_PCR28_OFFSET used once
PORTA_PCR29 40049074

Symbol: PORTA_PCR29
   Definitions
      At line 1244 in file MKL05Z4.s
   Uses
      None
Comment: PORTA_PCR29 unused
PORTA_PCR29_OFFSET 00000074

Symbol: PORTA_PCR29_OFFSET
   Definitions
      At line 1209 in file MKL05Z4.s
   Uses
      At line 1244 in file MKL05Z4.s
Comment: PORTA_PCR29_OFFSET used once
PORTA_PCR2_OFFSET 00000008

Symbol: PORTA_PCR2_OFFSET
   Definitions
      At line 1182 in file MKL05Z4.s
   Uses
      At line 1217 in file MKL05Z4.s
Comment: PORTA_PCR2_OFFSET used once
PORTA_PCR3 4004900C

Symbol: PORTA_PCR3
   Definitions
      At line 1218 in file MKL05Z4.s
   Uses
      None
Comment: PORTA_PCR3 unused
PORTA_PCR30 40049078




ARM Macro Assembler    Page 119 Alphabetic symbol ordering
Absolute symbols

Symbol: PORTA_PCR30
   Definitions
      At line 1245 in file MKL05Z4.s
   Uses
      None
Comment: PORTA_PCR30 unused
PORTA_PCR30_OFFSET 00000078

Symbol: PORTA_PCR30_OFFSET
   Definitions
      At line 1210 in file MKL05Z4.s
   Uses
      At line 1245 in file MKL05Z4.s
Comment: PORTA_PCR30_OFFSET used once
PORTA_PCR31 4004907C

Symbol: PORTA_PCR31
   Definitions
      At line 1246 in file MKL05Z4.s
   Uses
      None
Comment: PORTA_PCR31 unused
PORTA_PCR31_OFFSET 0000007C

Symbol: PORTA_PCR31_OFFSET
   Definitions
      At line 1211 in file MKL05Z4.s
   Uses
      At line 1246 in file MKL05Z4.s
Comment: PORTA_PCR31_OFFSET used once
PORTA_PCR3_OFFSET 0000000C

Symbol: PORTA_PCR3_OFFSET
   Definitions
      At line 1183 in file MKL05Z4.s
   Uses
      At line 1218 in file MKL05Z4.s
Comment: PORTA_PCR3_OFFSET used once
PORTA_PCR4 40049010

Symbol: PORTA_PCR4
   Definitions



ARM Macro Assembler    Page 120 Alphabetic symbol ordering
Absolute symbols

      At line 1219 in file MKL05Z4.s
   Uses
      None
Comment: PORTA_PCR4 unused
PORTA_PCR4_OFFSET 00000010

Symbol: PORTA_PCR4_OFFSET
   Definitions
      At line 1184 in file MKL05Z4.s
   Uses
      At line 1219 in file MKL05Z4.s
Comment: PORTA_PCR4_OFFSET used once
PORTA_PCR5 40049014

Symbol: PORTA_PCR5
   Definitions
      At line 1220 in file MKL05Z4.s
   Uses
      None
Comment: PORTA_PCR5 unused
PORTA_PCR5_OFFSET 00000014

Symbol: PORTA_PCR5_OFFSET
   Definitions
      At line 1185 in file MKL05Z4.s
   Uses
      At line 1220 in file MKL05Z4.s
Comment: PORTA_PCR5_OFFSET used once
PORTA_PCR6 40049018

Symbol: PORTA_PCR6
   Definitions
      At line 1221 in file MKL05Z4.s
   Uses
      None
Comment: PORTA_PCR6 unused
PORTA_PCR6_OFFSET 00000018

Symbol: PORTA_PCR6_OFFSET
   Definitions
      At line 1186 in file MKL05Z4.s
   Uses



ARM Macro Assembler    Page 121 Alphabetic symbol ordering
Absolute symbols

      At line 1221 in file MKL05Z4.s
Comment: PORTA_PCR6_OFFSET used once
PORTA_PCR7 4004901C

Symbol: PORTA_PCR7
   Definitions
      At line 1222 in file MKL05Z4.s
   Uses
      None
Comment: PORTA_PCR7 unused
PORTA_PCR7_OFFSET 0000001C

Symbol: PORTA_PCR7_OFFSET
   Definitions
      At line 1187 in file MKL05Z4.s
   Uses
      At line 1222 in file MKL05Z4.s
Comment: PORTA_PCR7_OFFSET used once
PORTA_PCR8 40049020

Symbol: PORTA_PCR8
   Definitions
      At line 1223 in file MKL05Z4.s
   Uses
      None
Comment: PORTA_PCR8 unused
PORTA_PCR8_OFFSET 00000020

Symbol: PORTA_PCR8_OFFSET
   Definitions
      At line 1188 in file MKL05Z4.s
   Uses
      At line 1223 in file MKL05Z4.s
Comment: PORTA_PCR8_OFFSET used once
PORTA_PCR9 40049024

Symbol: PORTA_PCR9
   Definitions
      At line 1224 in file MKL05Z4.s
   Uses
      None
Comment: PORTA_PCR9 unused



ARM Macro Assembler    Page 122 Alphabetic symbol ordering
Absolute symbols

PORTA_PCR9_OFFSET 00000024

Symbol: PORTA_PCR9_OFFSET
   Definitions
      At line 1189 in file MKL05Z4.s
   Uses
      At line 1224 in file MKL05Z4.s
Comment: PORTA_PCR9_OFFSET used once
PORTA_PRI_POS 00000016

Symbol: PORTA_PRI_POS
   Definitions
      At line 980 in file MKL05Z4.s
   Uses
      None
Comment: PORTA_PRI_POS unused
PORTA_Vector 0000002E

Symbol: PORTA_Vector
   Definitions
      At line 1065 in file MKL05Z4.s
   Uses
      None
Comment: PORTA_Vector unused
PORTB_BASE 4004A000

Symbol: PORTB_BASE
   Definitions
      At line 1252 in file MKL05Z4.s
   Uses
      At line 1288 in file MKL05Z4.s
      At line 1289 in file MKL05Z4.s
      At line 1290 in file MKL05Z4.s
      At line 1291 in file MKL05Z4.s
      At line 1292 in file MKL05Z4.s
      At line 1293 in file MKL05Z4.s
      At line 1294 in file MKL05Z4.s
      At line 1295 in file MKL05Z4.s
      At line 1296 in file MKL05Z4.s
      At line 1297 in file MKL05Z4.s
      At line 1298 in file MKL05Z4.s
      At line 1299 in file MKL05Z4.s



ARM Macro Assembler    Page 123 Alphabetic symbol ordering
Absolute symbols

      At line 1300 in file MKL05Z4.s
      At line 1301 in file MKL05Z4.s
      At line 1302 in file MKL05Z4.s
      At line 1303 in file MKL05Z4.s
      At line 1304 in file MKL05Z4.s
      At line 1305 in file MKL05Z4.s
      At line 1306 in file MKL05Z4.s
      At line 1307 in file MKL05Z4.s
      At line 1308 in file MKL05Z4.s
      At line 1309 in file MKL05Z4.s
      At line 1310 in file MKL05Z4.s
      At line 1311 in file MKL05Z4.s
      At line 1312 in file MKL05Z4.s
      At line 1313 in file MKL05Z4.s
      At line 1314 in file MKL05Z4.s
      At line 1315 in file MKL05Z4.s
      At line 1316 in file MKL05Z4.s
      At line 1317 in file MKL05Z4.s
      At line 1318 in file MKL05Z4.s
      At line 1319 in file MKL05Z4.s
      At line 1320 in file MKL05Z4.s
      At line 1321 in file MKL05Z4.s
      At line 1322 in file MKL05Z4.s

PORTB_GPCHR 4004A084

Symbol: PORTB_GPCHR
   Definitions
      At line 1321 in file MKL05Z4.s
   Uses
      None
Comment: PORTB_GPCHR unused
PORTB_GPCHR_OFFSET 00000084

Symbol: PORTB_GPCHR_OFFSET
   Definitions
      At line 1286 in file MKL05Z4.s
   Uses
      At line 1321 in file MKL05Z4.s
Comment: PORTB_GPCHR_OFFSET used once
PORTB_GPCLR 4004A080




ARM Macro Assembler    Page 124 Alphabetic symbol ordering
Absolute symbols

Symbol: PORTB_GPCLR
   Definitions
      At line 1320 in file MKL05Z4.s
   Uses
      None
Comment: PORTB_GPCLR unused
PORTB_GPCLR_OFFSET 00000080

Symbol: PORTB_GPCLR_OFFSET
   Definitions
      At line 1285 in file MKL05Z4.s
   Uses
      At line 1320 in file MKL05Z4.s
Comment: PORTB_GPCLR_OFFSET used once
PORTB_IPR E000E41C

Symbol: PORTB_IPR
   Definitions
      At line 945 in file MKL05Z4.s
   Uses
      None
Comment: PORTB_IPR unused
PORTB_IRQ_MASK 80000000

Symbol: PORTB_IRQ_MASK
   Definitions
      At line 1015 in file MKL05Z4.s
   Uses
      None
Comment: PORTB_IRQ_MASK unused
PORTB_IRQn 0000001F

Symbol: PORTB_IRQn
   Definitions
      At line 194 in file MKL05Z4.s
   Uses
      At line 1015 in file MKL05Z4.s
Comment: PORTB_IRQn used once
PORTB_ISFR 4004A0A0

Symbol: PORTB_ISFR
   Definitions



ARM Macro Assembler    Page 125 Alphabetic symbol ordering
Absolute symbols

      At line 1322 in file MKL05Z4.s
   Uses
      None
Comment: PORTB_ISFR unused
PORTB_ISFR_OFFSET 000000A0

Symbol: PORTB_ISFR_OFFSET
   Definitions
      At line 1287 in file MKL05Z4.s
   Uses
      At line 1322 in file MKL05Z4.s
Comment: PORTB_ISFR_OFFSET used once
PORTB_PCR0 4004A000

Symbol: PORTB_PCR0
   Definitions
      At line 1288 in file MKL05Z4.s
   Uses
      None
Comment: PORTB_PCR0 unused
PORTB_PCR0_OFFSET 00000000

Symbol: PORTB_PCR0_OFFSET
   Definitions
      At line 1253 in file MKL05Z4.s
   Uses
      At line 1288 in file MKL05Z4.s
Comment: PORTB_PCR0_OFFSET used once
PORTB_PCR1 4004A004

Symbol: PORTB_PCR1
   Definitions
      At line 1289 in file MKL05Z4.s
   Uses
      At line 1054 in file lab10.s
Comment: PORTB_PCR1 used once
PORTB_PCR10 4004A028

Symbol: PORTB_PCR10
   Definitions
      At line 1298 in file MKL05Z4.s
   Uses



ARM Macro Assembler    Page 126 Alphabetic symbol ordering
Absolute symbols

      None
Comment: PORTB_PCR10 unused
PORTB_PCR10_OFFSET 00000028

Symbol: PORTB_PCR10_OFFSET
   Definitions
      At line 1263 in file MKL05Z4.s
   Uses
      At line 1298 in file MKL05Z4.s
Comment: PORTB_PCR10_OFFSET used once
PORTB_PCR11 4004A02C

Symbol: PORTB_PCR11
   Definitions
      At line 1299 in file MKL05Z4.s
   Uses
      None
Comment: PORTB_PCR11 unused
PORTB_PCR11_OFFSET 0000002C

Symbol: PORTB_PCR11_OFFSET
   Definitions
      At line 1264 in file MKL05Z4.s
   Uses
      At line 1299 in file MKL05Z4.s
Comment: PORTB_PCR11_OFFSET used once
PORTB_PCR12 4004A030

Symbol: PORTB_PCR12
   Definitions
      At line 1300 in file MKL05Z4.s
   Uses
      None
Comment: PORTB_PCR12 unused
PORTB_PCR12_OFFSET 00000030

Symbol: PORTB_PCR12_OFFSET
   Definitions
      At line 1265 in file MKL05Z4.s
   Uses
      At line 1300 in file MKL05Z4.s
Comment: PORTB_PCR12_OFFSET used once



ARM Macro Assembler    Page 127 Alphabetic symbol ordering
Absolute symbols

PORTB_PCR13 4004A034

Symbol: PORTB_PCR13
   Definitions
      At line 1301 in file MKL05Z4.s
   Uses
      None
Comment: PORTB_PCR13 unused
PORTB_PCR13_OFFSET 00000034

Symbol: PORTB_PCR13_OFFSET
   Definitions
      At line 1266 in file MKL05Z4.s
   Uses
      At line 1301 in file MKL05Z4.s
Comment: PORTB_PCR13_OFFSET used once
PORTB_PCR14 4004A038

Symbol: PORTB_PCR14
   Definitions
      At line 1302 in file MKL05Z4.s
   Uses
      None
Comment: PORTB_PCR14 unused
PORTB_PCR14_OFFSET 00000038

Symbol: PORTB_PCR14_OFFSET
   Definitions
      At line 1267 in file MKL05Z4.s
   Uses
      At line 1302 in file MKL05Z4.s
Comment: PORTB_PCR14_OFFSET used once
PORTB_PCR15 4004A03C

Symbol: PORTB_PCR15
   Definitions
      At line 1303 in file MKL05Z4.s
   Uses
      None
Comment: PORTB_PCR15 unused
PORTB_PCR15_OFFSET 0000003C




ARM Macro Assembler    Page 128 Alphabetic symbol ordering
Absolute symbols

Symbol: PORTB_PCR15_OFFSET
   Definitions
      At line 1268 in file MKL05Z4.s
   Uses
      At line 1303 in file MKL05Z4.s
Comment: PORTB_PCR15_OFFSET used once
PORTB_PCR16 4004A040

Symbol: PORTB_PCR16
   Definitions
      At line 1304 in file MKL05Z4.s
   Uses
      None
Comment: PORTB_PCR16 unused
PORTB_PCR16_OFFSET 00000040

Symbol: PORTB_PCR16_OFFSET
   Definitions
      At line 1269 in file MKL05Z4.s
   Uses
      At line 1304 in file MKL05Z4.s
Comment: PORTB_PCR16_OFFSET used once
PORTB_PCR17 4004A044

Symbol: PORTB_PCR17
   Definitions
      At line 1305 in file MKL05Z4.s
   Uses
      None
Comment: PORTB_PCR17 unused
PORTB_PCR17_OFFSET 00000044

Symbol: PORTB_PCR17_OFFSET
   Definitions
      At line 1270 in file MKL05Z4.s
   Uses
      At line 1305 in file MKL05Z4.s
Comment: PORTB_PCR17_OFFSET used once
PORTB_PCR18 4004A048

Symbol: PORTB_PCR18
   Definitions



ARM Macro Assembler    Page 129 Alphabetic symbol ordering
Absolute symbols

      At line 1306 in file MKL05Z4.s
   Uses
      None
Comment: PORTB_PCR18 unused
PORTB_PCR18_OFFSET 00000048

Symbol: PORTB_PCR18_OFFSET
   Definitions
      At line 1271 in file MKL05Z4.s
   Uses
      At line 1306 in file MKL05Z4.s
Comment: PORTB_PCR18_OFFSET used once
PORTB_PCR19 4004A04C

Symbol: PORTB_PCR19
   Definitions
      At line 1307 in file MKL05Z4.s
   Uses
      None
Comment: PORTB_PCR19 unused
PORTB_PCR19_OFFSET 0000004C

Symbol: PORTB_PCR19_OFFSET
   Definitions
      At line 1272 in file MKL05Z4.s
   Uses
      At line 1307 in file MKL05Z4.s
Comment: PORTB_PCR19_OFFSET used once
PORTB_PCR1_OFFSET 00000004

Symbol: PORTB_PCR1_OFFSET
   Definitions
      At line 1254 in file MKL05Z4.s
   Uses
      At line 1289 in file MKL05Z4.s
Comment: PORTB_PCR1_OFFSET used once
PORTB_PCR2 4004A008

Symbol: PORTB_PCR2
   Definitions
      At line 1290 in file MKL05Z4.s
   Uses



ARM Macro Assembler    Page 130 Alphabetic symbol ordering
Absolute symbols

      At line 1050 in file lab10.s
Comment: PORTB_PCR2 used once
PORTB_PCR20 4004A050

Symbol: PORTB_PCR20
   Definitions
      At line 1308 in file MKL05Z4.s
   Uses
      None
Comment: PORTB_PCR20 unused
PORTB_PCR20_OFFSET 00000050

Symbol: PORTB_PCR20_OFFSET
   Definitions
      At line 1273 in file MKL05Z4.s
   Uses
      At line 1308 in file MKL05Z4.s
Comment: PORTB_PCR20_OFFSET used once
PORTB_PCR21 4004A054

Symbol: PORTB_PCR21
   Definitions
      At line 1309 in file MKL05Z4.s
   Uses
      None
Comment: PORTB_PCR21 unused
PORTB_PCR21_OFFSET 00000054

Symbol: PORTB_PCR21_OFFSET
   Definitions
      At line 1274 in file MKL05Z4.s
   Uses
      At line 1309 in file MKL05Z4.s
Comment: PORTB_PCR21_OFFSET used once
PORTB_PCR22 4004A058

Symbol: PORTB_PCR22
   Definitions
      At line 1310 in file MKL05Z4.s
   Uses
      None
Comment: PORTB_PCR22 unused



ARM Macro Assembler    Page 131 Alphabetic symbol ordering
Absolute symbols

PORTB_PCR22_OFFSET 00000058

Symbol: PORTB_PCR22_OFFSET
   Definitions
      At line 1275 in file MKL05Z4.s
   Uses
      At line 1310 in file MKL05Z4.s
Comment: PORTB_PCR22_OFFSET used once
PORTB_PCR23 4004A05C

Symbol: PORTB_PCR23
   Definitions
      At line 1311 in file MKL05Z4.s
   Uses
      None
Comment: PORTB_PCR23 unused
PORTB_PCR23_OFFSET 0000005C

Symbol: PORTB_PCR23_OFFSET
   Definitions
      At line 1276 in file MKL05Z4.s
   Uses
      At line 1311 in file MKL05Z4.s
Comment: PORTB_PCR23_OFFSET used once
PORTB_PCR24 4004A060

Symbol: PORTB_PCR24
   Definitions
      At line 1312 in file MKL05Z4.s
   Uses
      None
Comment: PORTB_PCR24 unused
PORTB_PCR24_OFFSET 00000060

Symbol: PORTB_PCR24_OFFSET
   Definitions
      At line 1277 in file MKL05Z4.s
   Uses
      At line 1312 in file MKL05Z4.s
Comment: PORTB_PCR24_OFFSET used once
PORTB_PCR25 4004A064




ARM Macro Assembler    Page 132 Alphabetic symbol ordering
Absolute symbols

Symbol: PORTB_PCR25
   Definitions
      At line 1313 in file MKL05Z4.s
   Uses
      None
Comment: PORTB_PCR25 unused
PORTB_PCR25_OFFSET 00000064

Symbol: PORTB_PCR25_OFFSET
   Definitions
      At line 1278 in file MKL05Z4.s
   Uses
      At line 1313 in file MKL05Z4.s
Comment: PORTB_PCR25_OFFSET used once
PORTB_PCR26 4004A068

Symbol: PORTB_PCR26
   Definitions
      At line 1314 in file MKL05Z4.s
   Uses
      None
Comment: PORTB_PCR26 unused
PORTB_PCR26_OFFSET 00000068

Symbol: PORTB_PCR26_OFFSET
   Definitions
      At line 1279 in file MKL05Z4.s
   Uses
      At line 1314 in file MKL05Z4.s
Comment: PORTB_PCR26_OFFSET used once
PORTB_PCR27 4004A06C

Symbol: PORTB_PCR27
   Definitions
      At line 1315 in file MKL05Z4.s
   Uses
      None
Comment: PORTB_PCR27 unused
PORTB_PCR27_OFFSET 0000006C

Symbol: PORTB_PCR27_OFFSET
   Definitions



ARM Macro Assembler    Page 133 Alphabetic symbol ordering
Absolute symbols

      At line 1280 in file MKL05Z4.s
   Uses
      At line 1315 in file MKL05Z4.s
Comment: PORTB_PCR27_OFFSET used once
PORTB_PCR28 4004A070

Symbol: PORTB_PCR28
   Definitions
      At line 1316 in file MKL05Z4.s
   Uses
      None
Comment: PORTB_PCR28 unused
PORTB_PCR28_OFFSET 00000070

Symbol: PORTB_PCR28_OFFSET
   Definitions
      At line 1281 in file MKL05Z4.s
   Uses
      At line 1316 in file MKL05Z4.s
Comment: PORTB_PCR28_OFFSET used once
PORTB_PCR29 4004A074

Symbol: PORTB_PCR29
   Definitions
      At line 1317 in file MKL05Z4.s
   Uses
      None
Comment: PORTB_PCR29 unused
PORTB_PCR29_OFFSET 00000074

Symbol: PORTB_PCR29_OFFSET
   Definitions
      At line 1282 in file MKL05Z4.s
   Uses
      At line 1317 in file MKL05Z4.s
Comment: PORTB_PCR29_OFFSET used once
PORTB_PCR2_OFFSET 00000008

Symbol: PORTB_PCR2_OFFSET
   Definitions
      At line 1255 in file MKL05Z4.s
   Uses



ARM Macro Assembler    Page 134 Alphabetic symbol ordering
Absolute symbols

      At line 1290 in file MKL05Z4.s
Comment: PORTB_PCR2_OFFSET used once
PORTB_PCR3 4004A00C

Symbol: PORTB_PCR3
   Definitions
      At line 1291 in file MKL05Z4.s
   Uses
      None
Comment: PORTB_PCR3 unused
PORTB_PCR30 4004A078

Symbol: PORTB_PCR30
   Definitions
      At line 1318 in file MKL05Z4.s
   Uses
      None
Comment: PORTB_PCR30 unused
PORTB_PCR30_OFFSET 00000078

Symbol: PORTB_PCR30_OFFSET
   Definitions
      At line 1283 in file MKL05Z4.s
   Uses
      At line 1318 in file MKL05Z4.s
Comment: PORTB_PCR30_OFFSET used once
PORTB_PCR31 4004A07C

Symbol: PORTB_PCR31
   Definitions
      At line 1319 in file MKL05Z4.s
   Uses
      None
Comment: PORTB_PCR31 unused
PORTB_PCR31_OFFSET 0000007C

Symbol: PORTB_PCR31_OFFSET
   Definitions
      At line 1284 in file MKL05Z4.s
   Uses
      At line 1319 in file MKL05Z4.s
Comment: PORTB_PCR31_OFFSET used once



ARM Macro Assembler    Page 135 Alphabetic symbol ordering
Absolute symbols

PORTB_PCR3_OFFSET 0000000C

Symbol: PORTB_PCR3_OFFSET
   Definitions
      At line 1256 in file MKL05Z4.s
   Uses
      At line 1291 in file MKL05Z4.s
Comment: PORTB_PCR3_OFFSET used once
PORTB_PCR4 4004A010

Symbol: PORTB_PCR4
   Definitions
      At line 1292 in file MKL05Z4.s
   Uses
      None
Comment: PORTB_PCR4 unused
PORTB_PCR4_OFFSET 00000010

Symbol: PORTB_PCR4_OFFSET
   Definitions
      At line 1257 in file MKL05Z4.s
   Uses
      At line 1292 in file MKL05Z4.s
Comment: PORTB_PCR4_OFFSET used once
PORTB_PCR5 4004A014

Symbol: PORTB_PCR5
   Definitions
      At line 1293 in file MKL05Z4.s
   Uses
      None
Comment: PORTB_PCR5 unused
PORTB_PCR5_OFFSET 00000014

Symbol: PORTB_PCR5_OFFSET
   Definitions
      At line 1258 in file MKL05Z4.s
   Uses
      At line 1293 in file MKL05Z4.s
Comment: PORTB_PCR5_OFFSET used once
PORTB_PCR6 4004A018




ARM Macro Assembler    Page 136 Alphabetic symbol ordering
Absolute symbols

Symbol: PORTB_PCR6
   Definitions
      At line 1294 in file MKL05Z4.s
   Uses
      None
Comment: PORTB_PCR6 unused
PORTB_PCR6_OFFSET 00000018

Symbol: PORTB_PCR6_OFFSET
   Definitions
      At line 1259 in file MKL05Z4.s
   Uses
      At line 1294 in file MKL05Z4.s
Comment: PORTB_PCR6_OFFSET used once
PORTB_PCR7 4004A01C

Symbol: PORTB_PCR7
   Definitions
      At line 1295 in file MKL05Z4.s
   Uses
      None
Comment: PORTB_PCR7 unused
PORTB_PCR7_OFFSET 0000001C

Symbol: PORTB_PCR7_OFFSET
   Definitions
      At line 1260 in file MKL05Z4.s
   Uses
      At line 1295 in file MKL05Z4.s
Comment: PORTB_PCR7_OFFSET used once
PORTB_PCR8 4004A020

Symbol: PORTB_PCR8
   Definitions
      At line 1296 in file MKL05Z4.s
   Uses
      None
Comment: PORTB_PCR8 unused
PORTB_PCR8_OFFSET 00000020

Symbol: PORTB_PCR8_OFFSET
   Definitions



ARM Macro Assembler    Page 137 Alphabetic symbol ordering
Absolute symbols

      At line 1261 in file MKL05Z4.s
   Uses
      At line 1296 in file MKL05Z4.s
Comment: PORTB_PCR8_OFFSET used once
PORTB_PCR9 4004A024

Symbol: PORTB_PCR9
   Definitions
      At line 1297 in file MKL05Z4.s
   Uses
      None
Comment: PORTB_PCR9 unused
PORTB_PCR9_OFFSET 00000024

Symbol: PORTB_PCR9_OFFSET
   Definitions
      At line 1262 in file MKL05Z4.s
   Uses
      At line 1297 in file MKL05Z4.s
Comment: PORTB_PCR9_OFFSET used once
PORTB_PRI_POS 0000001E

Symbol: PORTB_PRI_POS
   Definitions
      At line 981 in file MKL05Z4.s
   Uses
      None
Comment: PORTB_PRI_POS unused
PORTB_Vector 0000002F

Symbol: PORTB_Vector
   Definitions
      At line 1066 in file MKL05Z4.s
   Uses
      None
Comment: PORTB_Vector unused
PORT_GPCHR_GPWD_MASK 0000FFFF

Symbol: PORT_GPCHR_GPWD_MASK
   Definitions
      At line 1404 in file MKL05Z4.s
   Uses



ARM Macro Assembler    Page 138 Alphabetic symbol ordering
Absolute symbols

      None
Comment: PORT_GPCHR_GPWD_MASK unused
PORT_GPCHR_GPWD_SHIFT 00000000

Symbol: PORT_GPCHR_GPWD_SHIFT
   Definitions
      At line 1405 in file MKL05Z4.s
   Uses
      None
Comment: PORT_GPCHR_GPWD_SHIFT unused
PORT_GPCHR_GPWE_MASK FFFF0000

Symbol: PORT_GPCHR_GPWE_MASK
   Definitions
      At line 1402 in file MKL05Z4.s
   Uses
      None
Comment: PORT_GPCHR_GPWE_MASK unused
PORT_GPCHR_GPWE_SHIFT 00000010

Symbol: PORT_GPCHR_GPWE_SHIFT
   Definitions
      At line 1403 in file MKL05Z4.s
   Uses
      None
Comment: PORT_GPCHR_GPWE_SHIFT unused
PORT_GPCLR_GPWD_MASK 0000FFFF

Symbol: PORT_GPCLR_GPWD_MASK
   Definitions
      At line 1392 in file MKL05Z4.s
   Uses
      None
Comment: PORT_GPCLR_GPWD_MASK unused
PORT_GPCLR_GPWD_SHIFT 00000000

Symbol: PORT_GPCLR_GPWD_SHIFT
   Definitions
      At line 1393 in file MKL05Z4.s
   Uses
      None
Comment: PORT_GPCLR_GPWD_SHIFT unused



ARM Macro Assembler    Page 139 Alphabetic symbol ordering
Absolute symbols

PORT_GPCLR_GPWE_MASK FFFF0000

Symbol: PORT_GPCLR_GPWE_MASK
   Definitions
      At line 1390 in file MKL05Z4.s
   Uses
      None
Comment: PORT_GPCLR_GPWE_MASK unused
PORT_GPCLR_GPWE_SHIFT 00000010

Symbol: PORT_GPCLR_GPWE_SHIFT
   Definitions
      At line 1391 in file MKL05Z4.s
   Uses
      None
Comment: PORT_GPCLR_GPWE_SHIFT unused
PORT_ISFR_ISF_MASK FFFFFFFF

Symbol: PORT_ISFR_ISF_MASK
   Definitions
      At line 1419 in file MKL05Z4.s
   Uses
      None
Comment: PORT_ISFR_ISF_MASK unused
PORT_ISFR_ISF_SHIFT 00000000

Symbol: PORT_ISFR_ISF_SHIFT
   Definitions
      At line 1420 in file MKL05Z4.s
   Uses
      None
Comment: PORT_ISFR_ISF_SHIFT unused
PORT_PCR_DSE_MASK 00000040

Symbol: PORT_PCR_DSE_MASK
   Definitions
      At line 1364 in file MKL05Z4.s
   Uses
      None
Comment: PORT_PCR_DSE_MASK unused
PORT_PCR_DSE_SHIFT 00000006




ARM Macro Assembler    Page 140 Alphabetic symbol ordering
Absolute symbols

Symbol: PORT_PCR_DSE_SHIFT
   Definitions
      At line 1365 in file MKL05Z4.s
   Uses
      None
Comment: PORT_PCR_DSE_SHIFT unused
PORT_PCR_IRCQ_MASK 000F0000

Symbol: PORT_PCR_IRCQ_MASK
   Definitions
      At line 1360 in file MKL05Z4.s
   Uses
      None
Comment: PORT_PCR_IRCQ_MASK unused
PORT_PCR_IRCQ_SHIFT 00000010

Symbol: PORT_PCR_IRCQ_SHIFT
   Definitions
      At line 1361 in file MKL05Z4.s
   Uses
      None
Comment: PORT_PCR_IRCQ_SHIFT unused
PORT_PCR_ISF_MASK 01000000

Symbol: PORT_PCR_ISF_MASK
   Definitions
      At line 1358 in file MKL05Z4.s
   Uses
      At line 121 in file lab10.s
      At line 123 in file lab10.s

PORT_PCR_ISF_SHIFT 00000018

Symbol: PORT_PCR_ISF_SHIFT
   Definitions
      At line 1359 in file MKL05Z4.s
   Uses
      None
Comment: PORT_PCR_ISF_SHIFT unused
PORT_PCR_MUX_MASK 00000700

Symbol: PORT_PCR_MUX_MASK



ARM Macro Assembler    Page 141 Alphabetic symbol ordering
Absolute symbols

   Definitions
      At line 1362 in file MKL05Z4.s
   Uses
      None
Comment: PORT_PCR_MUX_MASK unused
PORT_PCR_MUX_SELECT_0_MASK 00000000

Symbol: PORT_PCR_MUX_SELECT_0_MASK
   Definitions
      At line 1374 in file MKL05Z4.s
   Uses
      None
Comment: PORT_PCR_MUX_SELECT_0_MASK unused
PORT_PCR_MUX_SELECT_1_MASK 00000100

Symbol: PORT_PCR_MUX_SELECT_1_MASK
   Definitions
      At line 1375 in file MKL05Z4.s
   Uses
      None
Comment: PORT_PCR_MUX_SELECT_1_MASK unused
PORT_PCR_MUX_SELECT_2_MASK 00000200

Symbol: PORT_PCR_MUX_SELECT_2_MASK
   Definitions
      At line 1376 in file MKL05Z4.s
   Uses
      At line 121 in file lab10.s
      At line 123 in file lab10.s

PORT_PCR_MUX_SELECT_3_MASK 00000300

Symbol: PORT_PCR_MUX_SELECT_3_MASK
   Definitions
      At line 1377 in file MKL05Z4.s
   Uses
      None
Comment: PORT_PCR_MUX_SELECT_3_MASK unused
PORT_PCR_MUX_SELECT_4_MASK 00000400

Symbol: PORT_PCR_MUX_SELECT_4_MASK
   Definitions



ARM Macro Assembler    Page 142 Alphabetic symbol ordering
Absolute symbols

      At line 1378 in file MKL05Z4.s
   Uses
      None
Comment: PORT_PCR_MUX_SELECT_4_MASK unused
PORT_PCR_MUX_SELECT_5_MASK 00000500

Symbol: PORT_PCR_MUX_SELECT_5_MASK
   Definitions
      At line 1379 in file MKL05Z4.s
   Uses
      None
Comment: PORT_PCR_MUX_SELECT_5_MASK unused
PORT_PCR_MUX_SELECT_6_MASK 00000600

Symbol: PORT_PCR_MUX_SELECT_6_MASK
   Definitions
      At line 1380 in file MKL05Z4.s
   Uses
      None
Comment: PORT_PCR_MUX_SELECT_6_MASK unused
PORT_PCR_MUX_SELECT_7_MASK 00000700

Symbol: PORT_PCR_MUX_SELECT_7_MASK
   Definitions
      At line 1381 in file MKL05Z4.s
   Uses
      None
Comment: PORT_PCR_MUX_SELECT_7_MASK unused
PORT_PCR_MUX_SHIFT 00000008

Symbol: PORT_PCR_MUX_SHIFT
   Definitions
      At line 1363 in file MKL05Z4.s
   Uses
      None
Comment: PORT_PCR_MUX_SHIFT unused
PORT_PCR_PE_MASK 00000002

Symbol: PORT_PCR_PE_MASK
   Definitions
      At line 1370 in file MKL05Z4.s
   Uses



ARM Macro Assembler    Page 143 Alphabetic symbol ordering
Absolute symbols

      None
Comment: PORT_PCR_PE_MASK unused
PORT_PCR_PE_SHIFT 00000001

Symbol: PORT_PCR_PE_SHIFT
   Definitions
      At line 1371 in file MKL05Z4.s
   Uses
      None
Comment: PORT_PCR_PE_SHIFT unused
PORT_PCR_PFE_MASK 00000010

Symbol: PORT_PCR_PFE_MASK
   Definitions
      At line 1366 in file MKL05Z4.s
   Uses
      None
Comment: PORT_PCR_PFE_MASK unused
PORT_PCR_PFE_SHIFT 00000004

Symbol: PORT_PCR_PFE_SHIFT
   Definitions
      At line 1367 in file MKL05Z4.s
   Uses
      None
Comment: PORT_PCR_PFE_SHIFT unused
PORT_PCR_PS_MASK 00000001

Symbol: PORT_PCR_PS_MASK
   Definitions
      At line 1372 in file MKL05Z4.s
   Uses
      None
Comment: PORT_PCR_PS_MASK unused
PORT_PCR_PS_SHIFT 00000000

Symbol: PORT_PCR_PS_SHIFT
   Definitions
      At line 1373 in file MKL05Z4.s
   Uses
      None
Comment: PORT_PCR_PS_SHIFT unused



ARM Macro Assembler    Page 144 Alphabetic symbol ordering
Absolute symbols

PORT_PCR_SET_PTB1_UART0_TX 01000200

Symbol: PORT_PCR_SET_PTB1_UART0_TX
   Definitions
      At line 123 in file lab10.s
   Uses
      At line 1055 in file lab10.s
Comment: PORT_PCR_SET_PTB1_UART0_TX used once
PORT_PCR_SET_PTB2_UART0_RX 01000200

Symbol: PORT_PCR_SET_PTB2_UART0_RX
   Definitions
      At line 121 in file lab10.s
   Uses
      At line 1051 in file lab10.s
Comment: PORT_PCR_SET_PTB2_UART0_RX used once
PORT_PCR_SRE_MASK 00000004

Symbol: PORT_PCR_SRE_MASK
   Definitions
      At line 1368 in file MKL05Z4.s
   Uses
      None
Comment: PORT_PCR_SRE_MASK unused
PORT_PCR_SRE_SHIFT 00000002

Symbol: PORT_PCR_SRE_SHIFT
   Definitions
      At line 1369 in file MKL05Z4.s
   Uses
      None
Comment: PORT_PCR_SRE_SHIFT unused
PRIMASK_PM_MASK 00000001

Symbol: PRIMASK_PM_MASK
   Definitions
      At line 72 in file MKL05Z4.s
   Uses
      None
Comment: PRIMASK_PM_MASK unused
PRIMASK_PM_SHIFT 00000000




ARM Macro Assembler    Page 145 Alphabetic symbol ordering
Absolute symbols

Symbol: PRIMASK_PM_SHIFT
   Definitions
      At line 73 in file MKL05Z4.s
   Uses
      None
Comment: PRIMASK_PM_SHIFT unused
PSR_C_MASK 20000000

Symbol: PSR_C_MASK
   Definitions
      At line 129 in file MKL05Z4.s
   Uses
      None
Comment: PSR_C_MASK unused
PSR_C_SHIFT 0000001D

Symbol: PSR_C_SHIFT
   Definitions
      At line 130 in file MKL05Z4.s
   Uses
      None
Comment: PSR_C_SHIFT unused
PSR_EXCEPTION_MASK 0000003F

Symbol: PSR_EXCEPTION_MASK
   Definitions
      At line 135 in file MKL05Z4.s
   Uses
      None
Comment: PSR_EXCEPTION_MASK unused
PSR_EXCEPTION_SHIFT 00000000

Symbol: PSR_EXCEPTION_SHIFT
   Definitions
      At line 136 in file MKL05Z4.s
   Uses
      None
Comment: PSR_EXCEPTION_SHIFT unused
PSR_N_MASK 80000000

Symbol: PSR_N_MASK
   Definitions



ARM Macro Assembler    Page 146 Alphabetic symbol ordering
Absolute symbols

      At line 125 in file MKL05Z4.s
   Uses
      None
Comment: PSR_N_MASK unused
PSR_N_SHIFT 0000001F

Symbol: PSR_N_SHIFT
   Definitions
      At line 126 in file MKL05Z4.s
   Uses
      None
Comment: PSR_N_SHIFT unused
PSR_T_MASK 01000000

Symbol: PSR_T_MASK
   Definitions
      At line 133 in file MKL05Z4.s
   Uses
      None
Comment: PSR_T_MASK unused
PSR_T_SHIFT 00000018

Symbol: PSR_T_SHIFT
   Definitions
      At line 134 in file MKL05Z4.s
   Uses
      None
Comment: PSR_T_SHIFT unused
PSR_V_MASK 10000000

Symbol: PSR_V_MASK
   Definitions
      At line 131 in file MKL05Z4.s
   Uses
      None
Comment: PSR_V_MASK unused
PSR_V_SHIFT 0000001C

Symbol: PSR_V_SHIFT
   Definitions
      At line 132 in file MKL05Z4.s
   Uses



ARM Macro Assembler    Page 147 Alphabetic symbol ordering
Absolute symbols

      None
Comment: PSR_V_SHIFT unused
PSR_Z_MASK 40000000

Symbol: PSR_Z_MASK
   Definitions
      At line 127 in file MKL05Z4.s
   Uses
      None
Comment: PSR_Z_MASK unused
PSR_Z_SHIFT 0000001E

Symbol: PSR_Z_SHIFT
   Definitions
      At line 128 in file MKL05Z4.s
   Uses
      None
Comment: PSR_Z_SHIFT unused
PTA_BASE 400FF000

Symbol: PTA_BASE
   Definitions
      At line 1447 in file MKL05Z4.s
   Uses
      At line 1448 in file MKL05Z4.s
      At line 1449 in file MKL05Z4.s
      At line 1450 in file MKL05Z4.s
      At line 1451 in file MKL05Z4.s
      At line 1452 in file MKL05Z4.s
      At line 1453 in file MKL05Z4.s

PTA_OFFSET 00000000

Symbol: PTA_OFFSET
   Definitions
      At line 1444 in file MKL05Z4.s
   Uses
      None
Comment: PTA_OFFSET unused
PTA_PCOR 400FF008

Symbol: PTA_PCOR



ARM Macro Assembler    Page 148 Alphabetic symbol ordering
Absolute symbols

   Definitions
      At line 1450 in file MKL05Z4.s
   Uses
      None
Comment: PTA_PCOR unused
PTA_PDDR 400FF014

Symbol: PTA_PDDR
   Definitions
      At line 1453 in file MKL05Z4.s
   Uses
      None
Comment: PTA_PDDR unused
PTA_PDIR 400FF010

Symbol: PTA_PDIR
   Definitions
      At line 1452 in file MKL05Z4.s
   Uses
      None
Comment: PTA_PDIR unused
PTA_PDOR 400FF000

Symbol: PTA_PDOR
   Definitions
      At line 1448 in file MKL05Z4.s
   Uses
      None
Comment: PTA_PDOR unused
PTA_PSOR 400FF004

Symbol: PTA_PSOR
   Definitions
      At line 1449 in file MKL05Z4.s
   Uses
      None
Comment: PTA_PSOR unused
PTA_PTOR 400FF00C

Symbol: PTA_PTOR
   Definitions
      At line 1451 in file MKL05Z4.s



ARM Macro Assembler    Page 149 Alphabetic symbol ordering
Absolute symbols

   Uses
      None
Comment: PTA_PTOR unused
PTB_BASE 400FF040

Symbol: PTB_BASE
   Definitions
      At line 1455 in file MKL05Z4.s
   Uses
      At line 1456 in file MKL05Z4.s
      At line 1457 in file MKL05Z4.s
      At line 1458 in file MKL05Z4.s
      At line 1459 in file MKL05Z4.s
      At line 1460 in file MKL05Z4.s
      At line 1461 in file MKL05Z4.s

PTB_OFFSET 00000040

Symbol: PTB_OFFSET
   Definitions
      At line 1445 in file MKL05Z4.s
   Uses
      None
Comment: PTB_OFFSET unused
PTB_PCOR 400FF048

Symbol: PTB_PCOR
   Definitions
      At line 1458 in file MKL05Z4.s
   Uses
      None
Comment: PTB_PCOR unused
PTB_PDDR 400FF054

Symbol: PTB_PDDR
   Definitions
      At line 1461 in file MKL05Z4.s
   Uses
      None
Comment: PTB_PDDR unused
PTB_PDIR 400FF050




ARM Macro Assembler    Page 150 Alphabetic symbol ordering
Absolute symbols

Symbol: PTB_PDIR
   Definitions
      At line 1460 in file MKL05Z4.s
   Uses
      None
Comment: PTB_PDIR unused
PTB_PDOR 400FF040

Symbol: PTB_PDOR
   Definitions
      At line 1456 in file MKL05Z4.s
   Uses
      None
Comment: PTB_PDOR unused
PTB_PSOR 400FF044

Symbol: PTB_PSOR
   Definitions
      At line 1457 in file MKL05Z4.s
   Uses
      None
Comment: PTB_PSOR unused
PTB_PTOR 400FF04C

Symbol: PTB_PTOR
   Definitions
      At line 1459 in file MKL05Z4.s
   Uses
      None
Comment: PTB_PTOR unused
PT_BASE 400FF000

Symbol: PT_BASE
   Definitions
      At line 1437 in file MKL05Z4.s
   Uses
      None
Comment: PT_BASE unused
PT_PCOR_OFFSET 00000008

Symbol: PT_PCOR_OFFSET
   Definitions



ARM Macro Assembler    Page 151 Alphabetic symbol ordering
Absolute symbols

      At line 1440 in file MKL05Z4.s
   Uses
      At line 1450 in file MKL05Z4.s
      At line 1458 in file MKL05Z4.s

PT_PDDR_OFFSET 00000014

Symbol: PT_PDDR_OFFSET
   Definitions
      At line 1443 in file MKL05Z4.s
   Uses
      At line 1453 in file MKL05Z4.s
      At line 1461 in file MKL05Z4.s

PT_PDIR_OFFSET 00000010

Symbol: PT_PDIR_OFFSET
   Definitions
      At line 1442 in file MKL05Z4.s
   Uses
      At line 1452 in file MKL05Z4.s
      At line 1460 in file MKL05Z4.s

PT_PDOR_OFFSET 00000000

Symbol: PT_PDOR_OFFSET
   Definitions
      At line 1438 in file MKL05Z4.s
   Uses
      At line 1448 in file MKL05Z4.s
      At line 1456 in file MKL05Z4.s

PT_PSOR_OFFSET 00000004

Symbol: PT_PSOR_OFFSET
   Definitions
      At line 1439 in file MKL05Z4.s
   Uses
      At line 1449 in file MKL05Z4.s
      At line 1457 in file MKL05Z4.s

PT_PTOR_OFFSET 0000000C



ARM Macro Assembler    Page 152 Alphabetic symbol ordering
Absolute symbols


Symbol: PT_PTOR_OFFSET
   Definitions
      At line 1441 in file MKL05Z4.s
   Uses
      At line 1451 in file MKL05Z4.s
      At line 1459 in file MKL05Z4.s

PendSV_IRQn FFFFFFFE

Symbol: PendSV_IRQn
   Definitions
      At line 158 in file MKL05Z4.s
   Uses
      None
Comment: PendSV_IRQn unused
PendSV_Vector 0000000E

Symbol: PendSV_Vector
   Definitions
      At line 1032 in file MKL05Z4.s
   Uses
      None
Comment: PendSV_Vector unused
PutNumUB_MASK 000000FF

Symbol: PutNumUB_MASK
   Definitions
      At line 38 in file lab10.s
   Uses
      At line 993 in file lab10.s
Comment: PutNumUB_MASK used once
Q_BUF_SZ 00000004

Symbol: Q_BUF_SZ
   Definitions
      At line 35 in file lab10.s
   Uses
      At line 568 in file lab10.s
      At line 1015 in file lab10.s
      At line 1021 in file lab10.s
      At line 1499 in file lab10.s



ARM Macro Assembler    Page 153 Alphabetic symbol ordering
Absolute symbols

      At line 1502 in file lab10.s
      At line 1507 in file lab10.s

Q_REC_SZ 00000012

Symbol: Q_REC_SZ
   Definitions
      At line 36 in file lab10.s
   Uses
      At line 1500 in file lab10.s
      At line 1503 in file lab10.s
      At line 1508 in file lab10.s

RET_ADDR_T_MASK 00000001

Symbol: RET_ADDR_T_MASK
   Definitions
      At line 44 in file MKL05Z4.s
   Uses
      None
Comment: RET_ADDR_T_MASK unused
RTC_IPR E000E414

Symbol: RTC_IPR
   Definitions
      At line 934 in file MKL05Z4.s
   Uses
      None
Comment: RTC_IPR unused
RTC_IRQ_MASK 00100000

Symbol: RTC_IRQ_MASK
   Definitions
      At line 1004 in file MKL05Z4.s
   Uses
      None
Comment: RTC_IRQ_MASK unused
RTC_IRQn 00000014

Symbol: RTC_IRQn
   Definitions
      At line 183 in file MKL05Z4.s



ARM Macro Assembler    Page 154 Alphabetic symbol ordering
Absolute symbols

   Uses
      At line 1004 in file MKL05Z4.s
Comment: RTC_IRQn used once
RTC_PRI_POS 00000006

Symbol: RTC_PRI_POS
   Definitions
      At line 970 in file MKL05Z4.s
   Uses
      None
Comment: RTC_PRI_POS unused
RTC_Seconds_IPR E000E414

Symbol: RTC_Seconds_IPR
   Definitions
      At line 935 in file MKL05Z4.s
   Uses
      None
Comment: RTC_Seconds_IPR unused
RTC_Seconds_IRQ_MASK 00200000

Symbol: RTC_Seconds_IRQ_MASK
   Definitions
      At line 1005 in file MKL05Z4.s
   Uses
      None
Comment: RTC_Seconds_IRQ_MASK unused
RTC_Seconds_IRQn 00000015

Symbol: RTC_Seconds_IRQn
   Definitions
      At line 184 in file MKL05Z4.s
   Uses
      At line 1005 in file MKL05Z4.s
Comment: RTC_Seconds_IRQn used once
RTC_Seconds_PRI_POS 0000000E

Symbol: RTC_Seconds_PRI_POS
   Definitions
      At line 971 in file MKL05Z4.s
   Uses
      None



ARM Macro Assembler    Page 155 Alphabetic symbol ordering
Absolute symbols

Comment: RTC_Seconds_PRI_POS unused
RTC_Seconds_Vector 00000025

Symbol: RTC_Seconds_Vector
   Definitions
      At line 1056 in file MKL05Z4.s
   Uses
      None
Comment: RTC_Seconds_Vector unused
RTC_Vector 00000024

Symbol: RTC_Vector
   Definitions
      At line 1055 in file MKL05Z4.s
   Uses
      None
Comment: RTC_Vector unused
Reserved04_Vector 00000004

Symbol: Reserved04_Vector
   Definitions
      At line 1022 in file MKL05Z4.s
   Uses
      None
Comment: Reserved04_Vector unused
Reserved05_Vector 00000005

Symbol: Reserved05_Vector
   Definitions
      At line 1023 in file MKL05Z4.s
   Uses
      None
Comment: Reserved05_Vector unused
Reserved06_Vector 00000006

Symbol: Reserved06_Vector
   Definitions
      At line 1024 in file MKL05Z4.s
   Uses
      None
Comment: Reserved06_Vector unused
Reserved07_Vector 00000007



ARM Macro Assembler    Page 156 Alphabetic symbol ordering
Absolute symbols


Symbol: Reserved07_Vector
   Definitions
      At line 1025 in file MKL05Z4.s
   Uses
      None
Comment: Reserved07_Vector unused
Reserved08_Vector 00000008

Symbol: Reserved08_Vector
   Definitions
      At line 1026 in file MKL05Z4.s
   Uses
      None
Comment: Reserved08_Vector unused
Reserved09_Vector 00000009

Symbol: Reserved09_Vector
   Definitions
      At line 1027 in file MKL05Z4.s
   Uses
      None
Comment: Reserved09_Vector unused
Reserved10_Vector 0000000A

Symbol: Reserved10_Vector
   Definitions
      At line 1028 in file MKL05Z4.s
   Uses
      None
Comment: Reserved10_Vector unused
Reserved12_Vector 0000000C

Symbol: Reserved12_Vector
   Definitions
      At line 1030 in file MKL05Z4.s
   Uses
      None
Comment: Reserved12_Vector unused
Reserved13_Vector 0000000D

Symbol: Reserved13_Vector



ARM Macro Assembler    Page 157 Alphabetic symbol ordering
Absolute symbols

   Definitions
      At line 1031 in file MKL05Z4.s
   Uses
      None
Comment: Reserved13_Vector unused
Reserved20_IPR E000E404

Symbol: Reserved20_IPR
   Definitions
      At line 918 in file MKL05Z4.s
   Uses
      None
Comment: Reserved20_IPR unused
Reserved20_IRQ_MASK 00000010

Symbol: Reserved20_IRQ_MASK
   Definitions
      At line 988 in file MKL05Z4.s
   Uses
      None
Comment: Reserved20_IRQ_MASK unused
Reserved20_IRQn 00000004

Symbol: Reserved20_IRQn
   Definitions
      At line 167 in file MKL05Z4.s
   Uses
      At line 988 in file MKL05Z4.s
Comment: Reserved20_IRQn used once
Reserved20_PRI_POS 00000006

Symbol: Reserved20_PRI_POS
   Definitions
      At line 954 in file MKL05Z4.s
   Uses
      None
Comment: Reserved20_PRI_POS unused
Reserved20_Vector 00000014

Symbol: Reserved20_Vector
   Definitions
      At line 1039 in file MKL05Z4.s



ARM Macro Assembler    Page 158 Alphabetic symbol ordering
Absolute symbols

   Uses
      None
Comment: Reserved20_Vector unused
Reserved25_IPR E000E408

Symbol: Reserved25_IPR
   Definitions
      At line 923 in file MKL05Z4.s
   Uses
      None
Comment: Reserved25_IPR unused
Reserved25_IRQ_MASK 00000200

Symbol: Reserved25_IRQ_MASK
   Definitions
      At line 993 in file MKL05Z4.s
   Uses
      None
Comment: Reserved25_IRQ_MASK unused
Reserved25_IRQn 00000009

Symbol: Reserved25_IRQn
   Definitions
      At line 172 in file MKL05Z4.s
   Uses
      At line 993 in file MKL05Z4.s
Comment: Reserved25_IRQn used once
Reserved25_PRI_POS 0000000E

Symbol: Reserved25_PRI_POS
   Definitions
      At line 959 in file MKL05Z4.s
   Uses
      None
Comment: Reserved25_PRI_POS unused
Reserved25_Vector 00000019

Symbol: Reserved25_Vector
   Definitions
      At line 1044 in file MKL05Z4.s
   Uses
      None



ARM Macro Assembler    Page 159 Alphabetic symbol ordering
Absolute symbols

Comment: Reserved25_Vector unused
Reserved27_IPR E000E408

Symbol: Reserved27_IPR
   Definitions
      At line 925 in file MKL05Z4.s
   Uses
      None
Comment: Reserved27_IPR unused
Reserved27_IRQ_MASK 00000800

Symbol: Reserved27_IRQ_MASK
   Definitions
      At line 995 in file MKL05Z4.s
   Uses
      None
Comment: Reserved27_IRQ_MASK unused
Reserved27_IRQn 0000000B

Symbol: Reserved27_IRQn
   Definitions
      At line 174 in file MKL05Z4.s
   Uses
      At line 995 in file MKL05Z4.s
Comment: Reserved27_IRQn used once
Reserved27_PRI_POS 0000001E

Symbol: Reserved27_PRI_POS
   Definitions
      At line 961 in file MKL05Z4.s
   Uses
      None
Comment: Reserved27_PRI_POS unused
Reserved27_Vector 0000001B

Symbol: Reserved27_Vector
   Definitions
      At line 1046 in file MKL05Z4.s
   Uses
      None
Comment: Reserved27_Vector unused
Reserved29_IPR E000E40C



ARM Macro Assembler    Page 160 Alphabetic symbol ordering
Absolute symbols


Symbol: Reserved29_IPR
   Definitions
      At line 927 in file MKL05Z4.s
   Uses
      None
Comment: Reserved29_IPR unused
Reserved29_IRQ_MASK 00002000

Symbol: Reserved29_IRQ_MASK
   Definitions
      At line 997 in file MKL05Z4.s
   Uses
      None
Comment: Reserved29_IRQ_MASK unused
Reserved29_IRQn 0000000D

Symbol: Reserved29_IRQn
   Definitions
      At line 176 in file MKL05Z4.s
   Uses
      At line 997 in file MKL05Z4.s
Comment: Reserved29_IRQn used once
Reserved29_PRI_POS 0000000E

Symbol: Reserved29_PRI_POS
   Definitions
      At line 963 in file MKL05Z4.s
   Uses
      None
Comment: Reserved29_PRI_POS unused
Reserved29_Vector 0000001D

Symbol: Reserved29_Vector
   Definitions
      At line 1048 in file MKL05Z4.s
   Uses
      None
Comment: Reserved29_Vector unused
Reserved30_IPR E000E40C

Symbol: Reserved30_IPR



ARM Macro Assembler    Page 161 Alphabetic symbol ordering
Absolute symbols

   Definitions
      At line 928 in file MKL05Z4.s
   Uses
      None
Comment: Reserved30_IPR unused
Reserved30_IRQ_MASK 00004000

Symbol: Reserved30_IRQ_MASK
   Definitions
      At line 998 in file MKL05Z4.s
   Uses
      None
Comment: Reserved30_IRQ_MASK unused
Reserved30_IRQn 0000000E

Symbol: Reserved30_IRQn
   Definitions
      At line 177 in file MKL05Z4.s
   Uses
      At line 998 in file MKL05Z4.s
Comment: Reserved30_IRQn used once
Reserved30_PRI_POS 00000016

Symbol: Reserved30_PRI_POS
   Definitions
      At line 964 in file MKL05Z4.s
   Uses
      None
Comment: Reserved30_PRI_POS unused
Reserved30_Vector 0000001E

Symbol: Reserved30_Vector
   Definitions
      At line 1049 in file MKL05Z4.s
   Uses
      None
Comment: Reserved30_Vector unused
Reserved35_IPR E000E410

Symbol: Reserved35_IPR
   Definitions
      At line 933 in file MKL05Z4.s



ARM Macro Assembler    Page 162 Alphabetic symbol ordering
Absolute symbols

   Uses
      None
Comment: Reserved35_IPR unused
Reserved35_IRQ_MASK 00080000

Symbol: Reserved35_IRQ_MASK
   Definitions
      At line 1003 in file MKL05Z4.s
   Uses
      None
Comment: Reserved35_IRQ_MASK unused
Reserved35_IRQn 00000013

Symbol: Reserved35_IRQn
   Definitions
      At line 182 in file MKL05Z4.s
   Uses
      At line 1003 in file MKL05Z4.s
Comment: Reserved35_IRQn used once
Reserved35_PRI_POS 0000001E

Symbol: Reserved35_PRI_POS
   Definitions
      At line 969 in file MKL05Z4.s
   Uses
      None
Comment: Reserved35_PRI_POS unused
Reserved35_Vector 00000023

Symbol: Reserved35_Vector
   Definitions
      At line 1054 in file MKL05Z4.s
   Uses
      None
Comment: Reserved35_Vector unused
Reserved39_IPR E000E414

Symbol: Reserved39_IPR
   Definitions
      At line 937 in file MKL05Z4.s
   Uses
      None



ARM Macro Assembler    Page 163 Alphabetic symbol ordering
Absolute symbols

Comment: Reserved39_IPR unused
Reserved39_IRQ_MASK 00800000

Symbol: Reserved39_IRQ_MASK
   Definitions
      At line 1007 in file MKL05Z4.s
   Uses
      None
Comment: Reserved39_IRQ_MASK unused
Reserved39_IRQn 00000017

Symbol: Reserved39_IRQn
   Definitions
      At line 186 in file MKL05Z4.s
   Uses
      At line 1007 in file MKL05Z4.s
Comment: Reserved39_IRQn used once
Reserved39_PRI_POS 0000001E

Symbol: Reserved39_PRI_POS
   Definitions
      At line 973 in file MKL05Z4.s
   Uses
      None
Comment: Reserved39_PRI_POS unused
Reserved39_Vector 00000027

Symbol: Reserved39_Vector
   Definitions
      At line 1058 in file MKL05Z4.s
   Uses
      None
Comment: Reserved39_Vector unused
Reserved40_IPR E000E418

Symbol: Reserved40_IPR
   Definitions
      At line 938 in file MKL05Z4.s
   Uses
      None
Comment: Reserved40_IPR unused
Reserved40_IRQ_MASK 01000000



ARM Macro Assembler    Page 164 Alphabetic symbol ordering
Absolute symbols


Symbol: Reserved40_IRQ_MASK
   Definitions
      At line 1008 in file MKL05Z4.s
   Uses
      None
Comment: Reserved40_IRQ_MASK unused
Reserved40_IRQn 00000018

Symbol: Reserved40_IRQn
   Definitions
      At line 187 in file MKL05Z4.s
   Uses
      At line 1008 in file MKL05Z4.s
Comment: Reserved40_IRQn used once
Reserved40_PRI_POS 00000006

Symbol: Reserved40_PRI_POS
   Definitions
      At line 974 in file MKL05Z4.s
   Uses
      None
Comment: Reserved40_PRI_POS unused
Reserved40_Vector 00000028

Symbol: Reserved40_Vector
   Definitions
      At line 1059 in file MKL05Z4.s
   Uses
      None
Comment: Reserved40_Vector unused
Reserved45_IPR E000E41C

Symbol: Reserved45_IPR
   Definitions
      At line 943 in file MKL05Z4.s
   Uses
      None
Comment: Reserved45_IPR unused
Reserved45_IRQ_MASK 20000000

Symbol: Reserved45_IRQ_MASK



ARM Macro Assembler    Page 165 Alphabetic symbol ordering
Absolute symbols

   Definitions
      At line 1013 in file MKL05Z4.s
   Uses
      None
Comment: Reserved45_IRQ_MASK unused
Reserved45_IRQn 0000001D

Symbol: Reserved45_IRQn
   Definitions
      At line 192 in file MKL05Z4.s
   Uses
      At line 1013 in file MKL05Z4.s
Comment: Reserved45_IRQn used once
Reserved45_PRI_POS 0000000E

Symbol: Reserved45_PRI_POS
   Definitions
      At line 979 in file MKL05Z4.s
   Uses
      None
Comment: Reserved45_PRI_POS unused
Reserved45_Vector 0000002D

Symbol: Reserved45_Vector
   Definitions
      At line 1064 in file MKL05Z4.s
   Uses
      None
Comment: Reserved45_Vector unused
Reset_Vector 00000001

Symbol: Reset_Vector
   Definitions
      At line 1019 in file MKL05Z4.s
   Uses
      None
Comment: Reset_Vector unused
SIM_BASE 40047000

Symbol: SIM_BASE
   Definitions
      At line 1467 in file MKL05Z4.s



ARM Macro Assembler    Page 166 Alphabetic symbol ordering
Absolute symbols

   Uses
      At line 1487 in file MKL05Z4.s
      At line 1488 in file MKL05Z4.s
      At line 1489 in file MKL05Z4.s
      At line 1490 in file MKL05Z4.s
      At line 1491 in file MKL05Z4.s
      At line 1492 in file MKL05Z4.s
      At line 1493 in file MKL05Z4.s
      At line 1494 in file MKL05Z4.s
      At line 1495 in file MKL05Z4.s
      At line 1496 in file MKL05Z4.s
      At line 1497 in file MKL05Z4.s
      At line 1498 in file MKL05Z4.s
      At line 1499 in file MKL05Z4.s
      At line 1500 in file MKL05Z4.s
      At line 1501 in file MKL05Z4.s
      At line 1502 in file MKL05Z4.s
      At line 1503 in file MKL05Z4.s
      At line 1504 in file MKL05Z4.s
      At line 1505 in file MKL05Z4.s

SIM_CLKDIV1 40048044

Symbol: SIM_CLKDIV1
   Definitions
      At line 1487 in file MKL05Z4.s
   Uses
      None
Comment: SIM_CLKDIV1 unused
SIM_CLKDIV1_OFFSET 00001044

Symbol: SIM_CLKDIV1_OFFSET
   Definitions
      At line 1479 in file MKL05Z4.s
   Uses
      At line 1487 in file MKL05Z4.s
Comment: SIM_CLKDIV1_OFFSET used once
SIM_CLKDIV1_OUTDIV1_MASK F0000000

Symbol: SIM_CLKDIV1_OUTDIV1_MASK
   Definitions
      At line 1518 in file MKL05Z4.s



ARM Macro Assembler    Page 167 Alphabetic symbol ordering
Absolute symbols

   Uses
      None
Comment: SIM_CLKDIV1_OUTDIV1_MASK unused
SIM_CLKDIV1_OUTDIV1_SHIFT 0000001C

Symbol: SIM_CLKDIV1_OUTDIV1_SHIFT
   Definitions
      At line 1519 in file MKL05Z4.s
   Uses
      None
Comment: SIM_CLKDIV1_OUTDIV1_SHIFT unused
SIM_CLKDIV1_OUTDIV4_MASK 00070000

Symbol: SIM_CLKDIV1_OUTDIV4_MASK
   Definitions
      At line 1520 in file MKL05Z4.s
   Uses
      None
Comment: SIM_CLKDIV1_OUTDIV4_MASK unused
SIM_CLKDIV1_OUTDIV4_SHIFT 00000010

Symbol: SIM_CLKDIV1_OUTDIV4_SHIFT
   Definitions
      At line 1521 in file MKL05Z4.s
   Uses
      None
Comment: SIM_CLKDIV1_OUTDIV4_SHIFT unused
SIM_COPC 40048100

Symbol: SIM_COPC
   Definitions
      At line 1488 in file MKL05Z4.s
   Uses
      None
Comment: SIM_COPC unused
SIM_COPC_OFFSET 00001100

Symbol: SIM_COPC_OFFSET
   Definitions
      At line 1485 in file MKL05Z4.s
   Uses
      At line 1488 in file MKL05Z4.s



ARM Macro Assembler    Page 168 Alphabetic symbol ordering
Absolute symbols

Comment: SIM_COPC_OFFSET used once
SIM_FCFG1 4004804C

Symbol: SIM_FCFG1
   Definitions
      At line 1489 in file MKL05Z4.s
   Uses
      None
Comment: SIM_FCFG1 unused
SIM_FCFG1_OFFSET 0000104C

Symbol: SIM_FCFG1_OFFSET
   Definitions
      At line 1480 in file MKL05Z4.s
   Uses
      At line 1489 in file MKL05Z4.s
Comment: SIM_FCFG1_OFFSET used once
SIM_FCFG2 40048050

Symbol: SIM_FCFG2
   Definitions
      At line 1490 in file MKL05Z4.s
   Uses
      None
Comment: SIM_FCFG2 unused
SIM_FCFG2_OFFSET 00001050

Symbol: SIM_FCFG2_OFFSET
   Definitions
      At line 1481 in file MKL05Z4.s
   Uses
      At line 1490 in file MKL05Z4.s
Comment: SIM_FCFG2_OFFSET used once
SIM_SCGC4 40048034

Symbol: SIM_SCGC4
   Definitions
      At line 1491 in file MKL05Z4.s
   Uses
      At line 1038 in file lab10.s
Comment: SIM_SCGC4 used once
SIM_SCGC4_CMP_MASK 00080000



ARM Macro Assembler    Page 169 Alphabetic symbol ordering
Absolute symbols


Symbol: SIM_SCGC4_CMP_MASK
   Definitions
      At line 1561 in file MKL05Z4.s
   Uses
      None
Comment: SIM_SCGC4_CMP_MASK unused
SIM_SCGC4_CMP_SHIFT 00000013

Symbol: SIM_SCGC4_CMP_SHIFT
   Definitions
      At line 1562 in file MKL05Z4.s
   Uses
      None
Comment: SIM_SCGC4_CMP_SHIFT unused
SIM_SCGC4_I2C0_MASK 00000040

Symbol: SIM_SCGC4_I2C0_MASK
   Definitions
      At line 1565 in file MKL05Z4.s
   Uses
      None
Comment: SIM_SCGC4_I2C0_MASK unused
SIM_SCGC4_I2C0_SHIFT 00000006

Symbol: SIM_SCGC4_I2C0_SHIFT
   Definitions
      At line 1566 in file MKL05Z4.s
   Uses
      None
Comment: SIM_SCGC4_I2C0_SHIFT unused
SIM_SCGC4_OFFSET 00001034

Symbol: SIM_SCGC4_OFFSET
   Definitions
      At line 1475 in file MKL05Z4.s
   Uses
      At line 1491 in file MKL05Z4.s
Comment: SIM_SCGC4_OFFSET used once
SIM_SCGC4_SPI0_MASK 00400000

Symbol: SIM_SCGC4_SPI0_MASK



ARM Macro Assembler    Page 170 Alphabetic symbol ordering
Absolute symbols

   Definitions
      At line 1559 in file MKL05Z4.s
   Uses
      None
Comment: SIM_SCGC4_SPI0_MASK unused
SIM_SCGC4_SPI0_SHIFT 00000016

Symbol: SIM_SCGC4_SPI0_SHIFT
   Definitions
      At line 1560 in file MKL05Z4.s
   Uses
      None
Comment: SIM_SCGC4_SPI0_SHIFT unused
SIM_SCGC4_UART0_MASK 00000400

Symbol: SIM_SCGC4_UART0_MASK
   Definitions
      At line 1563 in file MKL05Z4.s
   Uses
      At line 1039 in file lab10.s
Comment: SIM_SCGC4_UART0_MASK used once
SIM_SCGC4_UART0_SHIFT 0000000A

Symbol: SIM_SCGC4_UART0_SHIFT
   Definitions
      At line 1564 in file MKL05Z4.s
   Uses
      None
Comment: SIM_SCGC4_UART0_SHIFT unused
SIM_SCGC5 40048038

Symbol: SIM_SCGC5
   Definitions
      At line 1492 in file MKL05Z4.s
   Uses
      At line 1044 in file lab10.s
Comment: SIM_SCGC5 used once
SIM_SCGC5_LPTMR_MASK 00000001

Symbol: SIM_SCGC5_LPTMR_MASK
   Definitions
      At line 1589 in file MKL05Z4.s



ARM Macro Assembler    Page 171 Alphabetic symbol ordering
Absolute symbols

   Uses
      None
Comment: SIM_SCGC5_LPTMR_MASK unused
SIM_SCGC5_LPTMR_SHIFT 00000000

Symbol: SIM_SCGC5_LPTMR_SHIFT
   Definitions
      At line 1590 in file MKL05Z4.s
   Uses
      None
Comment: SIM_SCGC5_LPTMR_SHIFT unused
SIM_SCGC5_OFFSET 00001038

Symbol: SIM_SCGC5_OFFSET
   Definitions
      At line 1476 in file MKL05Z4.s
   Uses
      At line 1492 in file MKL05Z4.s
Comment: SIM_SCGC5_OFFSET used once
SIM_SCGC5_PORTA_MASK 00000200

Symbol: SIM_SCGC5_PORTA_MASK
   Definitions
      At line 1585 in file MKL05Z4.s
   Uses
      None
Comment: SIM_SCGC5_PORTA_MASK unused
SIM_SCGC5_PORTA_SHIFT 00000009

Symbol: SIM_SCGC5_PORTA_SHIFT
   Definitions
      At line 1586 in file MKL05Z4.s
   Uses
      None
Comment: SIM_SCGC5_PORTA_SHIFT unused
SIM_SCGC5_PORTB_MASK 00000400

Symbol: SIM_SCGC5_PORTB_MASK
   Definitions
      At line 1583 in file MKL05Z4.s
   Uses
      At line 1045 in file lab10.s



ARM Macro Assembler    Page 172 Alphabetic symbol ordering
Absolute symbols

Comment: SIM_SCGC5_PORTB_MASK used once
SIM_SCGC5_PORTB_SHIFT 0000000A

Symbol: SIM_SCGC5_PORTB_SHIFT
   Definitions
      At line 1584 in file MKL05Z4.s
   Uses
      None
Comment: SIM_SCGC5_PORTB_SHIFT unused
SIM_SCGC5_TSI_MASK 00000020

Symbol: SIM_SCGC5_TSI_MASK
   Definitions
      At line 1587 in file MKL05Z4.s
   Uses
      None
Comment: SIM_SCGC5_TSI_MASK unused
SIM_SCGC5_TSI_SHIFT 00000005

Symbol: SIM_SCGC5_TSI_SHIFT
   Definitions
      At line 1588 in file MKL05Z4.s
   Uses
      None
Comment: SIM_SCGC5_TSI_SHIFT unused
SIM_SCGC6 4004803C

Symbol: SIM_SCGC6
   Definitions
      At line 1493 in file MKL05Z4.s
   Uses
      At line 437 in file lab10.s
Comment: SIM_SCGC6 used once
SIM_SCGC6_ADC0_MASK 08000000

Symbol: SIM_SCGC6_ADC0_MASK
   Definitions
      At line 1611 in file MKL05Z4.s
   Uses
      None
Comment: SIM_SCGC6_ADC0_MASK unused
SIM_SCGC6_ADC0_SHIFT 0000001B



ARM Macro Assembler    Page 173 Alphabetic symbol ordering
Absolute symbols


Symbol: SIM_SCGC6_ADC0_SHIFT
   Definitions
      At line 1612 in file MKL05Z4.s
   Uses
      None
Comment: SIM_SCGC6_ADC0_SHIFT unused
SIM_SCGC6_DAC0_MASK 80000000

Symbol: SIM_SCGC6_DAC0_MASK
   Definitions
      At line 1607 in file MKL05Z4.s
   Uses
      None
Comment: SIM_SCGC6_DAC0_MASK unused
SIM_SCGC6_DAC0_SHIFT 0000001F

Symbol: SIM_SCGC6_DAC0_SHIFT
   Definitions
      At line 1608 in file MKL05Z4.s
   Uses
      None
Comment: SIM_SCGC6_DAC0_SHIFT unused
SIM_SCGC6_DMAMUX_MASK 00000002

Symbol: SIM_SCGC6_DMAMUX_MASK
   Definitions
      At line 1619 in file MKL05Z4.s
   Uses
      None
Comment: SIM_SCGC6_DMAMUX_MASK unused
SIM_SCGC6_DMAMUX_SHIFT 00000001

Symbol: SIM_SCGC6_DMAMUX_SHIFT
   Definitions
      At line 1620 in file MKL05Z4.s
   Uses
      None
Comment: SIM_SCGC6_DMAMUX_SHIFT unused
SIM_SCGC6_FTF_MASK 00000001

Symbol: SIM_SCGC6_FTF_MASK



ARM Macro Assembler    Page 174 Alphabetic symbol ordering
Absolute symbols

   Definitions
      At line 1621 in file MKL05Z4.s
   Uses
      None
Comment: SIM_SCGC6_FTF_MASK unused
SIM_SCGC6_FTF_SHIFT 00000000

Symbol: SIM_SCGC6_FTF_SHIFT
   Definitions
      At line 1622 in file MKL05Z4.s
   Uses
      None
Comment: SIM_SCGC6_FTF_SHIFT unused
SIM_SCGC6_OFFSET 0000103C

Symbol: SIM_SCGC6_OFFSET
   Definitions
      At line 1477 in file MKL05Z4.s
   Uses
      At line 1493 in file MKL05Z4.s
Comment: SIM_SCGC6_OFFSET used once
SIM_SCGC6_PIT_MASK 00800000

Symbol: SIM_SCGC6_PIT_MASK
   Definitions
      At line 1617 in file MKL05Z4.s
   Uses
      At line 438 in file lab10.s
Comment: SIM_SCGC6_PIT_MASK used once
SIM_SCGC6_PIT_SHIFT 00000017

Symbol: SIM_SCGC6_PIT_SHIFT
   Definitions
      At line 1618 in file MKL05Z4.s
   Uses
      None
Comment: SIM_SCGC6_PIT_SHIFT unused
SIM_SCGC6_RTC_MASK 20000000

Symbol: SIM_SCGC6_RTC_MASK
   Definitions
      At line 1609 in file MKL05Z4.s



ARM Macro Assembler    Page 175 Alphabetic symbol ordering
Absolute symbols

   Uses
      None
Comment: SIM_SCGC6_RTC_MASK unused
SIM_SCGC6_RTC_SHIFT 0000001D

Symbol: SIM_SCGC6_RTC_SHIFT
   Definitions
      At line 1610 in file MKL05Z4.s
   Uses
      None
Comment: SIM_SCGC6_RTC_SHIFT unused
SIM_SCGC6_TPM0_MASK 01000000

Symbol: SIM_SCGC6_TPM0_MASK
   Definitions
      At line 1615 in file MKL05Z4.s
   Uses
      None
Comment: SIM_SCGC6_TPM0_MASK unused
SIM_SCGC6_TPM0_SHIFT 00000018

Symbol: SIM_SCGC6_TPM0_SHIFT
   Definitions
      At line 1616 in file MKL05Z4.s
   Uses
      None
Comment: SIM_SCGC6_TPM0_SHIFT unused
SIM_SCGC6_TPM1_MASK 02000000

Symbol: SIM_SCGC6_TPM1_MASK
   Definitions
      At line 1613 in file MKL05Z4.s
   Uses
      None
Comment: SIM_SCGC6_TPM1_MASK unused
SIM_SCGC6_TPM1_SHIFT 00000019

Symbol: SIM_SCGC6_TPM1_SHIFT
   Definitions
      At line 1614 in file MKL05Z4.s
   Uses
      None



ARM Macro Assembler    Page 176 Alphabetic symbol ordering
Absolute symbols

Comment: SIM_SCGC6_TPM1_SHIFT unused
SIM_SCGC7 40048040

Symbol: SIM_SCGC7
   Definitions
      At line 1494 in file MKL05Z4.s
   Uses
      None
Comment: SIM_SCGC7 unused
SIM_SCGC7_OFFSET 00001040

Symbol: SIM_SCGC7_OFFSET
   Definitions
      At line 1478 in file MKL05Z4.s
   Uses
      At line 1494 in file MKL05Z4.s
Comment: SIM_SCGC7_OFFSET used once
SIM_SDID 40048024

Symbol: SIM_SDID
   Definitions
      At line 1495 in file MKL05Z4.s
   Uses
      None
Comment: SIM_SDID unused
SIM_SDID_OFFSET 00001024

Symbol: SIM_SDID_OFFSET
   Definitions
      At line 1474 in file MKL05Z4.s
   Uses
      At line 1495 in file MKL05Z4.s
Comment: SIM_SDID_OFFSET used once
SIM_SOPT1 40047000

Symbol: SIM_SOPT1
   Definitions
      At line 1496 in file MKL05Z4.s
   Uses
      None
Comment: SIM_SOPT1 unused
SIM_SOPT1CFG 40047004



ARM Macro Assembler    Page 177 Alphabetic symbol ordering
Absolute symbols


Symbol: SIM_SOPT1CFG
   Definitions
      At line 1497 in file MKL05Z4.s
   Uses
      None
Comment: SIM_SOPT1CFG unused
SIM_SOPT1CFG_OFFSET 00000004

Symbol: SIM_SOPT1CFG_OFFSET
   Definitions
      At line 1469 in file MKL05Z4.s
   Uses
      At line 1497 in file MKL05Z4.s
Comment: SIM_SOPT1CFG_OFFSET used once
SIM_SOPT1_OFFSET 00000000

Symbol: SIM_SOPT1_OFFSET
   Definitions
      At line 1468 in file MKL05Z4.s
   Uses
      At line 1496 in file MKL05Z4.s
Comment: SIM_SOPT1_OFFSET used once
SIM_SOPT1_OSC32KSEL_MASK 000C0000

Symbol: SIM_SOPT1_OSC32KSEL_MASK
   Definitions
      At line 1637 in file MKL05Z4.s
   Uses
      None
Comment: SIM_SOPT1_OSC32KSEL_MASK unused
SIM_SOPT1_OSC32KSEL_SHIFT 00000012

Symbol: SIM_SOPT1_OSC32KSEL_SHIFT
   Definitions
      At line 1638 in file MKL05Z4.s
   Uses
      None
Comment: SIM_SOPT1_OSC32KSEL_SHIFT unused
SIM_SOPT2 40048004

Symbol: SIM_SOPT2



ARM Macro Assembler    Page 178 Alphabetic symbol ordering
Absolute symbols

   Definitions
      At line 1498 in file MKL05Z4.s
   Uses
      At line 1024 in file lab10.s
Comment: SIM_SOPT2 used once
SIM_SOPT2_CLKOUTSEL_MASK 000000E0

Symbol: SIM_SOPT2_CLKOUTSEL_MASK
   Definitions
      At line 1671 in file MKL05Z4.s
   Uses
      None
Comment: SIM_SOPT2_CLKOUTSEL_MASK unused
SIM_SOPT2_CLKOUTSEL_SHIFT 00000005

Symbol: SIM_SOPT2_CLKOUTSEL_SHIFT
   Definitions
      At line 1672 in file MKL05Z4.s
   Uses
      None
Comment: SIM_SOPT2_CLKOUTSEL_SHIFT unused
SIM_SOPT2_OFFSET 00001004

Symbol: SIM_SOPT2_OFFSET
   Definitions
      At line 1470 in file MKL05Z4.s
   Uses
      At line 1498 in file MKL05Z4.s
Comment: SIM_SOPT2_OFFSET used once
SIM_SOPT2_RTCCLKOUTSEL_MASK 00000010

Symbol: SIM_SOPT2_RTCCLKOUTSEL_MASK
   Definitions
      At line 1673 in file MKL05Z4.s
   Uses
      None
Comment: SIM_SOPT2_RTCCLKOUTSEL_MASK unused
SIM_SOPT2_RTCCLKOUTSEL_SHIFT 00000004

Symbol: SIM_SOPT2_RTCCLKOUTSEL_SHIFT
   Definitions
      At line 1674 in file MKL05Z4.s



ARM Macro Assembler    Page 179 Alphabetic symbol ordering
Absolute symbols

   Uses
      None
Comment: SIM_SOPT2_RTCCLKOUTSEL_SHIFT unused
SIM_SOPT2_TPMSRC_MASK 03000000

Symbol: SIM_SOPT2_TPMSRC_MASK
   Definitions
      At line 1669 in file MKL05Z4.s
   Uses
      None
Comment: SIM_SOPT2_TPMSRC_MASK unused
SIM_SOPT2_TPMSRC_SHIFT 00000018

Symbol: SIM_SOPT2_TPMSRC_SHIFT
   Definitions
      At line 1670 in file MKL05Z4.s
   Uses
      None
Comment: SIM_SOPT2_TPMSRC_SHIFT unused
SIM_SOPT2_UART0SRC_MASK 0C000000

Symbol: SIM_SOPT2_UART0SRC_MASK
   Definitions
      At line 1667 in file MKL05Z4.s
   Uses
      At line 1025 in file lab10.s
Comment: SIM_SOPT2_UART0SRC_MASK used once
SIM_SOPT2_UART0SRC_MCGFLLCLK 04000000

Symbol: SIM_SOPT2_UART0SRC_MCGFLLCLK
   Definitions
      At line 137 in file lab10.s
   Uses
      At line 1028 in file lab10.s
Comment: SIM_SOPT2_UART0SRC_MCGFLLCLK used once
SIM_SOPT2_UART0SRC_SHIFT 0000001A

Symbol: SIM_SOPT2_UART0SRC_SHIFT
   Definitions
      At line 1668 in file MKL05Z4.s
   Uses
      At line 137 in file lab10.s



ARM Macro Assembler    Page 180 Alphabetic symbol ordering
Absolute symbols

Comment: SIM_SOPT2_UART0SRC_SHIFT used once
SIM_SOPT4 4004800C

Symbol: SIM_SOPT4
   Definitions
      At line 1499 in file MKL05Z4.s
   Uses
      None
Comment: SIM_SOPT4 unused
SIM_SOPT4_OFFSET 0000100C

Symbol: SIM_SOPT4_OFFSET
   Definitions
      At line 1471 in file MKL05Z4.s
   Uses
      At line 1499 in file MKL05Z4.s
Comment: SIM_SOPT4_OFFSET used once
SIM_SOPT5 40048010

Symbol: SIM_SOPT5
   Definitions
      At line 1500 in file MKL05Z4.s
   Uses
      At line 1032 in file lab10.s
Comment: SIM_SOPT5 used once
SIM_SOPT5_OFFSET 00001010

Symbol: SIM_SOPT5_OFFSET
   Definitions
      At line 1472 in file MKL05Z4.s
   Uses
      At line 1500 in file MKL05Z4.s
Comment: SIM_SOPT5_OFFSET used once
SIM_SOPT5_UART0ODE_MASK 00010000

Symbol: SIM_SOPT5_UART0ODE_MASK
   Definitions
      At line 1700 in file MKL05Z4.s
   Uses
      At line 146 in file lab10.s
Comment: SIM_SOPT5_UART0ODE_MASK used once
SIM_SOPT5_UART0ODE_SHIFT 00000010



ARM Macro Assembler    Page 181 Alphabetic symbol ordering
Absolute symbols


Symbol: SIM_SOPT5_UART0ODE_SHIFT
   Definitions
      At line 1701 in file MKL05Z4.s
   Uses
      None
Comment: SIM_SOPT5_UART0ODE_SHIFT unused
SIM_SOPT5_UART0RXSRC_MASK 00000004

Symbol: SIM_SOPT5_UART0RXSRC_MASK
   Definitions
      At line 1702 in file MKL05Z4.s
   Uses
      At line 146 in file lab10.s
Comment: SIM_SOPT5_UART0RXSRC_MASK used once
SIM_SOPT5_UART0RXSRC_SHIFT 00000002

Symbol: SIM_SOPT5_UART0RXSRC_SHIFT
   Definitions
      At line 1703 in file MKL05Z4.s
   Uses
      None
Comment: SIM_SOPT5_UART0RXSRC_SHIFT unused
SIM_SOPT5_UART0TXSRC_MASK 00000001

Symbol: SIM_SOPT5_UART0TXSRC_MASK
   Definitions
      At line 1704 in file MKL05Z4.s
   Uses
      At line 146 in file lab10.s
Comment: SIM_SOPT5_UART0TXSRC_MASK used once
SIM_SOPT5_UART0TXSRC_SHIFT 00000000

Symbol: SIM_SOPT5_UART0TXSRC_SHIFT
   Definitions
      At line 1705 in file MKL05Z4.s
   Uses
      None
Comment: SIM_SOPT5_UART0TXSRC_SHIFT unused
SIM_SOPT5_UART0_EXTERN_MASK_CLEAR 00010005

Symbol: SIM_SOPT5_UART0_EXTERN_MASK_CLEAR



ARM Macro Assembler    Page 182 Alphabetic symbol ordering
Absolute symbols

   Definitions
      At line 146 in file lab10.s
   Uses
      At line 1033 in file lab10.s
Comment: SIM_SOPT5_UART0_EXTERN_MASK_CLEAR used once
SIM_SOPT7 40048018

Symbol: SIM_SOPT7
   Definitions
      At line 1501 in file MKL05Z4.s
   Uses
      None
Comment: SIM_SOPT7 unused
SIM_SOPT7_OFFSET 00001018

Symbol: SIM_SOPT7_OFFSET
   Definitions
      At line 1473 in file MKL05Z4.s
   Uses
      At line 1501 in file MKL05Z4.s
Comment: SIM_SOPT7_OFFSET used once
SIM_SRVCOP 40048104

Symbol: SIM_SRVCOP
   Definitions
      At line 1502 in file MKL05Z4.s
   Uses
      None
Comment: SIM_SRVCOP unused
SIM_SRVCOP_OFFSET 00001104

Symbol: SIM_SRVCOP_OFFSET
   Definitions
      At line 1486 in file MKL05Z4.s
   Uses
      At line 1502 in file MKL05Z4.s
Comment: SIM_SRVCOP_OFFSET used once
SIM_UIDL 40048060

Symbol: SIM_UIDL
   Definitions
      At line 1503 in file MKL05Z4.s



ARM Macro Assembler    Page 183 Alphabetic symbol ordering
Absolute symbols

   Uses
      None
Comment: SIM_UIDL unused
SIM_UIDL_OFFSET 00001060

Symbol: SIM_UIDL_OFFSET
   Definitions
      At line 1484 in file MKL05Z4.s
   Uses
      At line 1503 in file MKL05Z4.s
Comment: SIM_UIDL_OFFSET used once
SIM_UIDMH 40048058

Symbol: SIM_UIDMH
   Definitions
      At line 1504 in file MKL05Z4.s
   Uses
      None
Comment: SIM_UIDMH unused
SIM_UIDMH_OFFSET 00001058

Symbol: SIM_UIDMH_OFFSET
   Definitions
      At line 1482 in file MKL05Z4.s
   Uses
      At line 1504 in file MKL05Z4.s
Comment: SIM_UIDMH_OFFSET used once
SIM_UIDML 4004805C

Symbol: SIM_UIDML
   Definitions
      At line 1505 in file MKL05Z4.s
   Uses
      None
Comment: SIM_UIDML unused
SIM_UIDML_OFFSET 0000105C

Symbol: SIM_UIDML_OFFSET
   Definitions
      At line 1483 in file MKL05Z4.s
   Uses
      At line 1505 in file MKL05Z4.s



ARM Macro Assembler    Page 184 Alphabetic symbol ordering
Absolute symbols

Comment: SIM_UIDML_OFFSET used once
SPI0_IPR E000E408

Symbol: SPI0_IPR
   Definitions
      At line 924 in file MKL05Z4.s
   Uses
      None
Comment: SPI0_IPR unused
SPI0_IRQ_MASK 00000400

Symbol: SPI0_IRQ_MASK
   Definitions
      At line 994 in file MKL05Z4.s
   Uses
      None
Comment: SPI0_IRQ_MASK unused
SPI0_IRQn 0000000A

Symbol: SPI0_IRQn
   Definitions
      At line 173 in file MKL05Z4.s
   Uses
      At line 994 in file MKL05Z4.s
Comment: SPI0_IRQn used once
SPI0_PRI_POS 00000016

Symbol: SPI0_PRI_POS
   Definitions
      At line 960 in file MKL05Z4.s
   Uses
      None
Comment: SPI0_PRI_POS unused
SPI0_Vector 0000001A

Symbol: SPI0_Vector
   Definitions
      At line 1045 in file MKL05Z4.s
   Uses
      None
Comment: SPI0_Vector unused
SVCall_IRQn FFFFFFFB



ARM Macro Assembler    Page 185 Alphabetic symbol ordering
Absolute symbols


Symbol: SVCall_IRQn
   Definitions
      At line 157 in file MKL05Z4.s
   Uses
      None
Comment: SVCall_IRQn unused
SVCall_Vector 0000000B

Symbol: SVCall_Vector
   Definitions
      At line 1029 in file MKL05Z4.s
   Uses
      None
Comment: SVCall_Vector unused
SysTick_IRQn FFFFFFFF

Symbol: SysTick_IRQn
   Definitions
      At line 160 in file MKL05Z4.s
   Uses
      None
Comment: SysTick_IRQn unused
SysTick_Vector 0000000F

Symbol: SysTick_Vector
   Definitions
      At line 1034 in file MKL05Z4.s
   Uses
      None
Comment: SysTick_Vector unused
TPM0_IPR E000E410

Symbol: TPM0_IPR
   Definitions
      At line 931 in file MKL05Z4.s
   Uses
      None
Comment: TPM0_IPR unused
TPM0_IRQ_MASK 00020000

Symbol: TPM0_IRQ_MASK



ARM Macro Assembler    Page 186 Alphabetic symbol ordering
Absolute symbols

   Definitions
      At line 1001 in file MKL05Z4.s
   Uses
      None
Comment: TPM0_IRQ_MASK unused
TPM0_IRQn 00000011

Symbol: TPM0_IRQn
   Definitions
      At line 180 in file MKL05Z4.s
   Uses
      At line 1001 in file MKL05Z4.s
Comment: TPM0_IRQn used once
TPM0_PRI_POS 0000000E

Symbol: TPM0_PRI_POS
   Definitions
      At line 967 in file MKL05Z4.s
   Uses
      None
Comment: TPM0_PRI_POS unused
TPM0_Vector 00000021

Symbol: TPM0_Vector
   Definitions
      At line 1052 in file MKL05Z4.s
   Uses
      None
Comment: TPM0_Vector unused
TPM1_IPR E000E410

Symbol: TPM1_IPR
   Definitions
      At line 932 in file MKL05Z4.s
   Uses
      None
Comment: TPM1_IPR unused
TPM1_IRQ_MASK 00040000

Symbol: TPM1_IRQ_MASK
   Definitions
      At line 1002 in file MKL05Z4.s



ARM Macro Assembler    Page 187 Alphabetic symbol ordering
Absolute symbols

   Uses
      None
Comment: TPM1_IRQ_MASK unused
TPM1_IRQn 00000012

Symbol: TPM1_IRQn
   Definitions
      At line 181 in file MKL05Z4.s
   Uses
      At line 1002 in file MKL05Z4.s
Comment: TPM1_IRQn used once
TPM1_PRI_POS 00000016

Symbol: TPM1_PRI_POS
   Definitions
      At line 968 in file MKL05Z4.s
   Uses
      None
Comment: TPM1_PRI_POS unused
TPM1_Vector 00000022

Symbol: TPM1_Vector
   Definitions
      At line 1053 in file MKL05Z4.s
   Uses
      None
Comment: TPM1_Vector unused
TSI0_IPR E000E418

Symbol: TSI0_IPR
   Definitions
      At line 940 in file MKL05Z4.s
   Uses
      None
Comment: TSI0_IPR unused
TSI0_IRQ_MASK 04000000

Symbol: TSI0_IRQ_MASK
   Definitions
      At line 1010 in file MKL05Z4.s
   Uses
      None



ARM Macro Assembler    Page 188 Alphabetic symbol ordering
Absolute symbols

Comment: TSI0_IRQ_MASK unused
TSI0_IRQn 0000001A

Symbol: TSI0_IRQn
   Definitions
      At line 189 in file MKL05Z4.s
   Uses
      At line 1010 in file MKL05Z4.s
Comment: TSI0_IRQn used once
TSI0_PRI_POS 00000016

Symbol: TSI0_PRI_POS
   Definitions
      At line 976 in file MKL05Z4.s
   Uses
      None
Comment: TSI0_PRI_POS unused
TSI0_Vector 0000002A

Symbol: TSI0_Vector
   Definitions
      At line 1061 in file MKL05Z4.s
   Uses
      None
Comment: TSI0_Vector unused
UART0_BASE 4006A000

Symbol: UART0_BASE
   Definitions
      At line 1708 in file MKL05Z4.s
   Uses
      At line 1721 in file MKL05Z4.s
      At line 1722 in file MKL05Z4.s
      At line 1723 in file MKL05Z4.s
      At line 1724 in file MKL05Z4.s
      At line 1725 in file MKL05Z4.s
      At line 1726 in file MKL05Z4.s
      At line 1727 in file MKL05Z4.s
      At line 1728 in file MKL05Z4.s
      At line 1729 in file MKL05Z4.s
      At line 1730 in file MKL05Z4.s
      At line 1731 in file MKL05Z4.s



ARM Macro Assembler    Page 189 Alphabetic symbol ordering
Absolute symbols

      At line 1732 in file MKL05Z4.s
      At line 542 in file lab10.s
      At line 576 in file lab10.s
      At line 592 in file lab10.s
      At line 603 in file lab10.s
      At line 1059 in file lab10.s
      At line 1098 in file lab10.s
      At line 1185 in file lab10.s

UART0_BDH 4006A000

Symbol: UART0_BDH
   Definitions
      At line 1721 in file MKL05Z4.s
   Uses
      None
Comment: UART0_BDH unused
UART0_BDH_9600 00000001

Symbol: UART0_BDH_9600
   Definitions
      At line 157 in file lab10.s
   Uses
      At line 1100 in file lab10.s
Comment: UART0_BDH_9600 used once
UART0_BDH_LBKDIE_MASK 00000080

Symbol: UART0_BDH_LBKDIE_MASK
   Definitions
      At line 1739 in file MKL05Z4.s
   Uses
      None
Comment: UART0_BDH_LBKDIE_MASK unused
UART0_BDH_LBKDIE_SHIFT 00000007

Symbol: UART0_BDH_LBKDIE_SHIFT
   Definitions
      At line 1740 in file MKL05Z4.s
   Uses
      None
Comment: UART0_BDH_LBKDIE_SHIFT unused
UART0_BDH_OFFSET 00000000



ARM Macro Assembler    Page 190 Alphabetic symbol ordering
Absolute symbols


Symbol: UART0_BDH_OFFSET
   Definitions
      At line 1709 in file MKL05Z4.s
   Uses
      At line 1721 in file MKL05Z4.s
      At line 1101 in file lab10.s

UART0_BDH_RXEDGIE_MASK 00000040

Symbol: UART0_BDH_RXEDGIE_MASK
   Definitions
      At line 1741 in file MKL05Z4.s
   Uses
      None
Comment: UART0_BDH_RXEDGIE_MASK unused
UART0_BDH_RXEDGIE_SHIFT 00000006

Symbol: UART0_BDH_RXEDGIE_SHIFT
   Definitions
      At line 1742 in file MKL05Z4.s
   Uses
      None
Comment: UART0_BDH_RXEDGIE_SHIFT unused
UART0_BDH_SBNS_MASK 00000020

Symbol: UART0_BDH_SBNS_MASK
   Definitions
      At line 1743 in file MKL05Z4.s
   Uses
      None
Comment: UART0_BDH_SBNS_MASK unused
UART0_BDH_SBNS_SHIFT 00000005

Symbol: UART0_BDH_SBNS_SHIFT
   Definitions
      At line 1744 in file MKL05Z4.s
   Uses
      None
Comment: UART0_BDH_SBNS_SHIFT unused
UART0_BDH_SBR_MASK 0000001F




ARM Macro Assembler    Page 191 Alphabetic symbol ordering
Absolute symbols

Symbol: UART0_BDH_SBR_MASK
   Definitions
      At line 1745 in file MKL05Z4.s
   Uses
      None
Comment: UART0_BDH_SBR_MASK unused
UART0_BDH_SBR_SHIFT 00000000

Symbol: UART0_BDH_SBR_SHIFT
   Definitions
      At line 1746 in file MKL05Z4.s
   Uses
      None
Comment: UART0_BDH_SBR_SHIFT unused
UART0_BDL 4006A001

Symbol: UART0_BDL
   Definitions
      At line 1722 in file MKL05Z4.s
   Uses
      None
Comment: UART0_BDL unused
UART0_BDL_9600 00000038

Symbol: UART0_BDL_9600
   Definitions
      At line 165 in file lab10.s
   Uses
      At line 1102 in file lab10.s
Comment: UART0_BDL_9600 used once
UART0_BDL_OFFSET 00000001

Symbol: UART0_BDL_OFFSET
   Definitions
      At line 1710 in file MKL05Z4.s
   Uses
      At line 1722 in file MKL05Z4.s
      At line 1103 in file lab10.s

UART0_BDL_SBR_MASK 000000FF

Symbol: UART0_BDL_SBR_MASK



ARM Macro Assembler    Page 192 Alphabetic symbol ordering
Absolute symbols

   Definitions
      At line 1750 in file MKL05Z4.s
   Uses
      None
Comment: UART0_BDL_SBR_MASK unused
UART0_BDL_SBR_SHIFT 00000000

Symbol: UART0_BDL_SBR_SHIFT
   Definitions
      At line 1751 in file MKL05Z4.s
   Uses
      None
Comment: UART0_BDL_SBR_SHIFT unused
UART0_C1 4006A002

Symbol: UART0_C1
   Definitions
      At line 1723 in file MKL05Z4.s
   Uses
      None
Comment: UART0_C1 unused
UART0_C1_8N1 00000000

Symbol: UART0_C1_8N1
   Definitions
      At line 177 in file lab10.s
   Uses
      At line 1105 in file lab10.s
Comment: UART0_C1_8N1 used once
UART0_C1_DOZEEN_MASK 00000040

Symbol: UART0_C1_DOZEEN_MASK
   Definitions
      At line 1764 in file MKL05Z4.s
   Uses
      None
Comment: UART0_C1_DOZEEN_MASK unused
UART0_C1_DOZEEN_SHIFT 00000006

Symbol: UART0_C1_DOZEEN_SHIFT
   Definitions
      At line 1765 in file MKL05Z4.s



ARM Macro Assembler    Page 193 Alphabetic symbol ordering
Absolute symbols

   Uses
      None
Comment: UART0_C1_DOZEEN_SHIFT unused
UART0_C1_ILT_MASK 00000004

Symbol: UART0_C1_ILT_MASK
   Definitions
      At line 1772 in file MKL05Z4.s
   Uses
      None
Comment: UART0_C1_ILT_MASK unused
UART0_C1_ILT_SHIFT 00000002

Symbol: UART0_C1_ILT_SHIFT
   Definitions
      At line 1773 in file MKL05Z4.s
   Uses
      None
Comment: UART0_C1_ILT_SHIFT unused
UART0_C1_LOOPS_MASK 00000080

Symbol: UART0_C1_LOOPS_MASK
   Definitions
      At line 1762 in file MKL05Z4.s
   Uses
      None
Comment: UART0_C1_LOOPS_MASK unused
UART0_C1_LOOPS_SHIFT 00000007

Symbol: UART0_C1_LOOPS_SHIFT
   Definitions
      At line 1763 in file MKL05Z4.s
   Uses
      None
Comment: UART0_C1_LOOPS_SHIFT unused
UART0_C1_M_MASK 00000010

Symbol: UART0_C1_M_MASK
   Definitions
      At line 1768 in file MKL05Z4.s
   Uses
      None



ARM Macro Assembler    Page 194 Alphabetic symbol ordering
Absolute symbols

Comment: UART0_C1_M_MASK unused
UART0_C1_M_SHIFT 00000004

Symbol: UART0_C1_M_SHIFT
   Definitions
      At line 1769 in file MKL05Z4.s
   Uses
      None
Comment: UART0_C1_M_SHIFT unused
UART0_C1_OFFSET 00000002

Symbol: UART0_C1_OFFSET
   Definitions
      At line 1711 in file MKL05Z4.s
   Uses
      At line 1723 in file MKL05Z4.s
      At line 1106 in file lab10.s

UART0_C1_PE_MASK 00000002

Symbol: UART0_C1_PE_MASK
   Definitions
      At line 1774 in file MKL05Z4.s
   Uses
      None
Comment: UART0_C1_PE_MASK unused
UART0_C1_PE_SHIFT 00000001

Symbol: UART0_C1_PE_SHIFT
   Definitions
      At line 1775 in file MKL05Z4.s
   Uses
      None
Comment: UART0_C1_PE_SHIFT unused
UART0_C1_PT_MASK 00000001

Symbol: UART0_C1_PT_MASK
   Definitions
      At line 1776 in file MKL05Z4.s
   Uses
      None
Comment: UART0_C1_PT_MASK unused



ARM Macro Assembler    Page 195 Alphabetic symbol ordering
Absolute symbols

UART0_C1_PT_SHIFT 00000000

Symbol: UART0_C1_PT_SHIFT
   Definitions
      At line 1777 in file MKL05Z4.s
   Uses
      None
Comment: UART0_C1_PT_SHIFT unused
UART0_C1_RSRC_MASK 00000020

Symbol: UART0_C1_RSRC_MASK
   Definitions
      At line 1766 in file MKL05Z4.s
   Uses
      None
Comment: UART0_C1_RSRC_MASK unused
UART0_C1_RSRC_SHIFT 00000005

Symbol: UART0_C1_RSRC_SHIFT
   Definitions
      At line 1767 in file MKL05Z4.s
   Uses
      None
Comment: UART0_C1_RSRC_SHIFT unused
UART0_C1_WAKE_MASK 00000008

Symbol: UART0_C1_WAKE_MASK
   Definitions
      At line 1770 in file MKL05Z4.s
   Uses
      None
Comment: UART0_C1_WAKE_MASK unused
UART0_C1_WAKE_SHIFT 00000003

Symbol: UART0_C1_WAKE_SHIFT
   Definitions
      At line 1771 in file MKL05Z4.s
   Uses
      None
Comment: UART0_C1_WAKE_SHIFT unused
UART0_C2 4006A003




ARM Macro Assembler    Page 196 Alphabetic symbol ordering
Absolute symbols

Symbol: UART0_C2
   Definitions
      At line 1724 in file MKL05Z4.s
   Uses
      None
Comment: UART0_C2 unused
UART0_C2_ILIE_MASK 00000010

Symbol: UART0_C2_ILIE_MASK
   Definitions
      At line 1794 in file MKL05Z4.s
   Uses
      None
Comment: UART0_C2_ILIE_MASK unused
UART0_C2_ILIE_SHIFT 00000004

Symbol: UART0_C2_ILIE_SHIFT
   Definitions
      At line 1795 in file MKL05Z4.s
   Uses
      None
Comment: UART0_C2_ILIE_SHIFT unused
UART0_C2_OFFSET 00000003

Symbol: UART0_C2_OFFSET
   Definitions
      At line 1712 in file MKL05Z4.s
   Uses
      At line 1724 in file MKL05Z4.s
      At line 545 in file lab10.s
      At line 586 in file lab10.s
      At line 1062 in file lab10.s
      At line 1064 in file lab10.s
      At line 1119 in file lab10.s
      At line 1187 in file lab10.s

UART0_C2_RE_MASK 00000004

Symbol: UART0_C2_RE_MASK
   Definitions
      At line 1798 in file MKL05Z4.s
   Uses



ARM Macro Assembler    Page 197 Alphabetic symbol ordering
Absolute symbols

      At line 188 in file lab10.s
Comment: UART0_C2_RE_MASK used once
UART0_C2_RE_SHIFT 00000002

Symbol: UART0_C2_RE_SHIFT
   Definitions
      At line 1799 in file MKL05Z4.s
   Uses
      None
Comment: UART0_C2_RE_SHIFT unused
UART0_C2_RIE_MASK 00000020

Symbol: UART0_C2_RIE_MASK
   Definitions
      At line 1792 in file MKL05Z4.s
   Uses
      At line 189 in file lab10.s
Comment: UART0_C2_RIE_MASK used once
UART0_C2_RIE_SHIFT 00000005

Symbol: UART0_C2_RIE_SHIFT
   Definitions
      At line 1793 in file MKL05Z4.s
   Uses
      None
Comment: UART0_C2_RIE_SHIFT unused
UART0_C2_RWU_MASK 00000002

Symbol: UART0_C2_RWU_MASK
   Definitions
      At line 1800 in file MKL05Z4.s
   Uses
      None
Comment: UART0_C2_RWU_MASK unused
UART0_C2_RWU_SHIFT 00000001

Symbol: UART0_C2_RWU_SHIFT
   Definitions
      At line 1801 in file MKL05Z4.s
   Uses
      None
Comment: UART0_C2_RWU_SHIFT unused



ARM Macro Assembler    Page 198 Alphabetic symbol ordering
Absolute symbols

UART0_C2_SBK_MASK 00000001

Symbol: UART0_C2_SBK_MASK
   Definitions
      At line 1802 in file MKL05Z4.s
   Uses
      None
Comment: UART0_C2_SBK_MASK unused
UART0_C2_SBK_SHIFT 00000000

Symbol: UART0_C2_SBK_SHIFT
   Definitions
      At line 1803 in file MKL05Z4.s
   Uses
      None
Comment: UART0_C2_SBK_SHIFT unused
UART0_C2_TCIE_MASK 00000040

Symbol: UART0_C2_TCIE_MASK
   Definitions
      At line 1790 in file MKL05Z4.s
   Uses
      None
Comment: UART0_C2_TCIE_MASK unused
UART0_C2_TCIE_SHIFT 00000006

Symbol: UART0_C2_TCIE_SHIFT
   Definitions
      At line 1791 in file MKL05Z4.s
   Uses
      None
Comment: UART0_C2_TCIE_SHIFT unused
UART0_C2_TE_MASK 00000008

Symbol: UART0_C2_TE_MASK
   Definitions
      At line 1796 in file MKL05Z4.s
   Uses
      At line 188 in file lab10.s
Comment: UART0_C2_TE_MASK used once
UART0_C2_TE_SHIFT 00000003




ARM Macro Assembler    Page 199 Alphabetic symbol ordering
Absolute symbols

Symbol: UART0_C2_TE_SHIFT
   Definitions
      At line 1797 in file MKL05Z4.s
   Uses
      None
Comment: UART0_C2_TE_SHIFT unused
UART0_C2_TIE_MASK 00000080

Symbol: UART0_C2_TIE_MASK
   Definitions
      At line 1788 in file MKL05Z4.s
   Uses
      At line 190 in file lab10.s
Comment: UART0_C2_TIE_MASK used once
UART0_C2_TIE_SHIFT 00000007

Symbol: UART0_C2_TIE_SHIFT
   Definitions
      At line 1789 in file MKL05Z4.s
   Uses
      None
Comment: UART0_C2_TIE_SHIFT unused
UART0_C2_TI_RI 000000AC

Symbol: UART0_C2_TI_RI
   Definitions
      At line 190 in file lab10.s
   Uses
      At line 1186 in file lab10.s
Comment: UART0_C2_TI_RI used once
UART0_C2_T_R 0000000C

Symbol: UART0_C2_T_R
   Definitions
      At line 188 in file lab10.s
   Uses
      At line 189 in file lab10.s
      At line 1061 in file lab10.s
      At line 1118 in file lab10.s

UART0_C2_T_RI 0000002C




ARM Macro Assembler    Page 200 Alphabetic symbol ordering
Absolute symbols

Symbol: UART0_C2_T_RI
   Definitions
      At line 189 in file lab10.s
   Uses
      At line 190 in file lab10.s
      At line 585 in file lab10.s

UART0_C3 4006A006

Symbol: UART0_C3
   Definitions
      At line 1727 in file MKL05Z4.s
   Uses
      None
Comment: UART0_C3 unused
UART0_C3_FEIE_MASK 00000002

Symbol: UART0_C3_FEIE_MASK
   Definitions
      At line 1827 in file MKL05Z4.s
   Uses
      None
Comment: UART0_C3_FEIE_MASK unused
UART0_C3_FEIE_SHIFT 00000001

Symbol: UART0_C3_FEIE_SHIFT
   Definitions
      At line 1828 in file MKL05Z4.s
   Uses
      None
Comment: UART0_C3_FEIE_SHIFT unused
UART0_C3_NEIE_MASK 00000004

Symbol: UART0_C3_NEIE_MASK
   Definitions
      At line 1825 in file MKL05Z4.s
   Uses
      None
Comment: UART0_C3_NEIE_MASK unused
UART0_C3_NEIE_SHIFT 00000002

Symbol: UART0_C3_NEIE_SHIFT



ARM Macro Assembler    Page 201 Alphabetic symbol ordering
Absolute symbols

   Definitions
      At line 1826 in file MKL05Z4.s
   Uses
      None
Comment: UART0_C3_NEIE_SHIFT unused
UART0_C3_NO_TXINV 00000000

Symbol: UART0_C3_NO_TXINV
   Definitions
      At line 204 in file lab10.s
   Uses
      At line 1107 in file lab10.s
Comment: UART0_C3_NO_TXINV used once
UART0_C3_OFFSET 00000006

Symbol: UART0_C3_OFFSET
   Definitions
      At line 1715 in file MKL05Z4.s
   Uses
      At line 1727 in file MKL05Z4.s
      At line 1108 in file lab10.s

UART0_C3_ORIE_MASK 00000008

Symbol: UART0_C3_ORIE_MASK
   Definitions
      At line 1823 in file MKL05Z4.s
   Uses
      None
Comment: UART0_C3_ORIE_MASK unused
UART0_C3_ORIE_SHIFT 00000003

Symbol: UART0_C3_ORIE_SHIFT
   Definitions
      At line 1824 in file MKL05Z4.s
   Uses
      None
Comment: UART0_C3_ORIE_SHIFT unused
UART0_C3_PEIE_MASK 00000001

Symbol: UART0_C3_PEIE_MASK
   Definitions



ARM Macro Assembler    Page 202 Alphabetic symbol ordering
Absolute symbols

      At line 1829 in file MKL05Z4.s
   Uses
      None
Comment: UART0_C3_PEIE_MASK unused
UART0_C3_PEIE_SHIFT 00000000

Symbol: UART0_C3_PEIE_SHIFT
   Definitions
      At line 1830 in file MKL05Z4.s
   Uses
      None
Comment: UART0_C3_PEIE_SHIFT unused
UART0_C3_R8T9_MASK 00000080

Symbol: UART0_C3_R8T9_MASK
   Definitions
      At line 1815 in file MKL05Z4.s
   Uses
      None
Comment: UART0_C3_R8T9_MASK unused
UART0_C3_R8T9_SHIFT 00000007

Symbol: UART0_C3_R8T9_SHIFT
   Definitions
      At line 1816 in file MKL05Z4.s
   Uses
      None
Comment: UART0_C3_R8T9_SHIFT unused
UART0_C3_R9T8_MASK 00000040

Symbol: UART0_C3_R9T8_MASK
   Definitions
      At line 1817 in file MKL05Z4.s
   Uses
      None
Comment: UART0_C3_R9T8_MASK unused
UART0_C3_R9T8_SHIFT 00000006

Symbol: UART0_C3_R9T8_SHIFT
   Definitions
      At line 1818 in file MKL05Z4.s
   Uses



ARM Macro Assembler    Page 203 Alphabetic symbol ordering
Absolute symbols

      None
Comment: UART0_C3_R9T8_SHIFT unused
UART0_C3_TXDIR_MASK 00000020

Symbol: UART0_C3_TXDIR_MASK
   Definitions
      At line 1819 in file MKL05Z4.s
   Uses
      None
Comment: UART0_C3_TXDIR_MASK unused
UART0_C3_TXDIR_SHIFT 00000005

Symbol: UART0_C3_TXDIR_SHIFT
   Definitions
      At line 1820 in file MKL05Z4.s
   Uses
      None
Comment: UART0_C3_TXDIR_SHIFT unused
UART0_C3_TXINV_MASK 00000010

Symbol: UART0_C3_TXINV_MASK
   Definitions
      At line 1821 in file MKL05Z4.s
   Uses
      None
Comment: UART0_C3_TXINV_MASK unused
UART0_C3_TXINV_SHIFT 00000004

Symbol: UART0_C3_TXINV_SHIFT
   Definitions
      At line 1822 in file MKL05Z4.s
   Uses
      None
Comment: UART0_C3_TXINV_SHIFT unused
UART0_C4 4006A00A

Symbol: UART0_C4
   Definitions
      At line 1731 in file MKL05Z4.s
   Uses
      None
Comment: UART0_C4 unused



ARM Macro Assembler    Page 204 Alphabetic symbol ordering
Absolute symbols

UART0_C4_M10_MASK 00000020

Symbol: UART0_C4_M10_MASK
   Definitions
      At line 1843 in file MKL05Z4.s
   Uses
      None
Comment: UART0_C4_M10_MASK unused
UART0_C4_M10_SHIFT 00000005

Symbol: UART0_C4_M10_SHIFT
   Definitions
      At line 1844 in file MKL05Z4.s
   Uses
      None
Comment: UART0_C4_M10_SHIFT unused
UART0_C4_MAEN1_MASK 00000080

Symbol: UART0_C4_MAEN1_MASK
   Definitions
      At line 1839 in file MKL05Z4.s
   Uses
      None
Comment: UART0_C4_MAEN1_MASK unused
UART0_C4_MAEN1_SHIFT 00000007

Symbol: UART0_C4_MAEN1_SHIFT
   Definitions
      At line 1840 in file MKL05Z4.s
   Uses
      None
Comment: UART0_C4_MAEN1_SHIFT unused
UART0_C4_MAEN2_MASK 00000040

Symbol: UART0_C4_MAEN2_MASK
   Definitions
      At line 1841 in file MKL05Z4.s
   Uses
      None
Comment: UART0_C4_MAEN2_MASK unused
UART0_C4_MAEN2_SHIFT 00000006




ARM Macro Assembler    Page 205 Alphabetic symbol ordering
Absolute symbols

Symbol: UART0_C4_MAEN2_SHIFT
   Definitions
      At line 1842 in file MKL05Z4.s
   Uses
      None
Comment: UART0_C4_MAEN2_SHIFT unused
UART0_C4_NO_MATCH_OSR_16 0000000F

Symbol: UART0_C4_NO_MATCH_OSR_16
   Definitions
      At line 214 in file lab10.s
   Uses
      At line 1109 in file lab10.s
Comment: UART0_C4_NO_MATCH_OSR_16 used once
UART0_C4_OFFSET 0000000A

Symbol: UART0_C4_OFFSET
   Definitions
      At line 1719 in file MKL05Z4.s
   Uses
      At line 1731 in file MKL05Z4.s
      At line 1110 in file lab10.s

UART0_C4_OSR_16 0000000F

Symbol: UART0_C4_OSR_16
   Definitions
      At line 213 in file lab10.s
   Uses
      At line 214 in file lab10.s
Comment: UART0_C4_OSR_16 used once
UART0_C4_OSR_MASK 0000001F

Symbol: UART0_C4_OSR_MASK
   Definitions
      At line 1845 in file MKL05Z4.s
   Uses
      None
Comment: UART0_C4_OSR_MASK unused
UART0_C4_OSR_SHIFT 00000000

Symbol: UART0_C4_OSR_SHIFT



ARM Macro Assembler    Page 206 Alphabetic symbol ordering
Absolute symbols

   Definitions
      At line 1846 in file MKL05Z4.s
   Uses
      None
Comment: UART0_C4_OSR_SHIFT unused
UART0_C5 4006A00B

Symbol: UART0_C5
   Definitions
      At line 1732 in file MKL05Z4.s
   Uses
      None
Comment: UART0_C5 unused
UART0_C5_BOTHEDGE_MASK 00000002

Symbol: UART0_C5_BOTHEDGE_MASK
   Definitions
      At line 1859 in file MKL05Z4.s
   Uses
      None
Comment: UART0_C5_BOTHEDGE_MASK unused
UART0_C5_BOTHEDGE_SHIFT 00000001

Symbol: UART0_C5_BOTHEDGE_SHIFT
   Definitions
      At line 1860 in file MKL05Z4.s
   Uses
      None
Comment: UART0_C5_BOTHEDGE_SHIFT unused
UART0_C5_NO_DMA_SSR_SYNC 00000000

Symbol: UART0_C5_NO_DMA_SSR_SYNC
   Definitions
      At line 223 in file lab10.s
   Uses
      At line 1111 in file lab10.s
Comment: UART0_C5_NO_DMA_SSR_SYNC used once
UART0_C5_OFFSET 0000000B

Symbol: UART0_C5_OFFSET
   Definitions
      At line 1720 in file MKL05Z4.s



ARM Macro Assembler    Page 207 Alphabetic symbol ordering
Absolute symbols

   Uses
      At line 1732 in file MKL05Z4.s
      At line 1112 in file lab10.s

UART0_C5_RDMAE_MASK 00000020

Symbol: UART0_C5_RDMAE_MASK
   Definitions
      At line 1857 in file MKL05Z4.s
   Uses
      None
Comment: UART0_C5_RDMAE_MASK unused
UART0_C5_RDMAE_SHIFT 00000005

Symbol: UART0_C5_RDMAE_SHIFT
   Definitions
      At line 1858 in file MKL05Z4.s
   Uses
      None
Comment: UART0_C5_RDMAE_SHIFT unused
UART0_C5_RESYNCDIS_MASK 00000001

Symbol: UART0_C5_RESYNCDIS_MASK
   Definitions
      At line 1861 in file MKL05Z4.s
   Uses
      None
Comment: UART0_C5_RESYNCDIS_MASK unused
UART0_C5_RESYNCDIS_SHIFT 00000000

Symbol: UART0_C5_RESYNCDIS_SHIFT
   Definitions
      At line 1862 in file MKL05Z4.s
   Uses
      None
Comment: UART0_C5_RESYNCDIS_SHIFT unused
UART0_C5_TDMAE_MASK 00000080

Symbol: UART0_C5_TDMAE_MASK
   Definitions
      At line 1855 in file MKL05Z4.s
   Uses



ARM Macro Assembler    Page 208 Alphabetic symbol ordering
Absolute symbols

      None
Comment: UART0_C5_TDMAE_MASK unused
UART0_C5_TDMAE_SHIFT 00000007

Symbol: UART0_C5_TDMAE_SHIFT
   Definitions
      At line 1856 in file MKL05Z4.s
   Uses
      None
Comment: UART0_C5_TDMAE_SHIFT unused
UART0_D 4006A007

Symbol: UART0_D
   Definitions
      At line 1728 in file MKL05Z4.s
   Uses
      None
Comment: UART0_D unused
UART0_D_OFFSET 00000007

Symbol: UART0_D_OFFSET
   Definitions
      At line 1716 in file MKL05Z4.s
   Uses
      At line 1728 in file MKL05Z4.s
      At line 579 in file lab10.s
      At line 604 in file lab10.s

UART0_D_R0T0_MASK 00000001

Symbol: UART0_D_R0T0_MASK
   Definitions
      At line 1895 in file MKL05Z4.s
   Uses
      None
Comment: UART0_D_R0T0_MASK unused
UART0_D_R0T0_SHIFT 00000000

Symbol: UART0_D_R0T0_SHIFT
   Definitions
      At line 1896 in file MKL05Z4.s
   Uses



ARM Macro Assembler    Page 209 Alphabetic symbol ordering
Absolute symbols

      None
Comment: UART0_D_R0T0_SHIFT unused
UART0_D_R1T1_MASK 00000002

Symbol: UART0_D_R1T1_MASK
   Definitions
      At line 1893 in file MKL05Z4.s
   Uses
      None
Comment: UART0_D_R1T1_MASK unused
UART0_D_R1T1_SHIFT 00000001

Symbol: UART0_D_R1T1_SHIFT
   Definitions
      At line 1894 in file MKL05Z4.s
   Uses
      None
Comment: UART0_D_R1T1_SHIFT unused
UART0_D_R2T2_MASK 00000004

Symbol: UART0_D_R2T2_MASK
   Definitions
      At line 1891 in file MKL05Z4.s
   Uses
      None
Comment: UART0_D_R2T2_MASK unused
UART0_D_R2T2_SHIFT 00000002

Symbol: UART0_D_R2T2_SHIFT
   Definitions
      At line 1892 in file MKL05Z4.s
   Uses
      None
Comment: UART0_D_R2T2_SHIFT unused
UART0_D_R3T3_MASK 00000008

Symbol: UART0_D_R3T3_MASK
   Definitions
      At line 1889 in file MKL05Z4.s
   Uses
      None
Comment: UART0_D_R3T3_MASK unused



ARM Macro Assembler    Page 210 Alphabetic symbol ordering
Absolute symbols

UART0_D_R3T3_SHIFT 00000003

Symbol: UART0_D_R3T3_SHIFT
   Definitions
      At line 1890 in file MKL05Z4.s
   Uses
      None
Comment: UART0_D_R3T3_SHIFT unused
UART0_D_R4T4_MASK 00000010

Symbol: UART0_D_R4T4_MASK
   Definitions
      At line 1887 in file MKL05Z4.s
   Uses
      None
Comment: UART0_D_R4T4_MASK unused
UART0_D_R4T4_SHIFT 00000004

Symbol: UART0_D_R4T4_SHIFT
   Definitions
      At line 1888 in file MKL05Z4.s
   Uses
      None
Comment: UART0_D_R4T4_SHIFT unused
UART0_D_R5T5_MASK 00000020

Symbol: UART0_D_R5T5_MASK
   Definitions
      At line 1885 in file MKL05Z4.s
   Uses
      None
Comment: UART0_D_R5T5_MASK unused
UART0_D_R5T5_SHIFT 00000005

Symbol: UART0_D_R5T5_SHIFT
   Definitions
      At line 1886 in file MKL05Z4.s
   Uses
      None
Comment: UART0_D_R5T5_SHIFT unused
UART0_D_R6T6_MASK 00000040




ARM Macro Assembler    Page 211 Alphabetic symbol ordering
Absolute symbols

Symbol: UART0_D_R6T6_MASK
   Definitions
      At line 1883 in file MKL05Z4.s
   Uses
      None
Comment: UART0_D_R6T6_MASK unused
UART0_D_R6T6_SHIFT 00000006

Symbol: UART0_D_R6T6_SHIFT
   Definitions
      At line 1884 in file MKL05Z4.s
   Uses
      None
Comment: UART0_D_R6T6_SHIFT unused
UART0_D_R7T7_MASK 00000080

Symbol: UART0_D_R7T7_MASK
   Definitions
      At line 1881 in file MKL05Z4.s
   Uses
      None
Comment: UART0_D_R7T7_MASK unused
UART0_D_R7T7_SHIFT 00000007

Symbol: UART0_D_R7T7_SHIFT
   Definitions
      At line 1882 in file MKL05Z4.s
   Uses
      None
Comment: UART0_D_R7T7_SHIFT unused
UART0_IPR E000E40C

Symbol: UART0_IPR
   Definitions
      At line 926 in file MKL05Z4.s
   Uses
      At line 1069 in file lab10.s
Comment: UART0_IPR used once
UART0_IRQ_MASK 00001000

Symbol: UART0_IRQ_MASK
   Definitions



ARM Macro Assembler    Page 212 Alphabetic symbol ordering
Absolute symbols

      At line 996 in file MKL05Z4.s
   Uses
      At line 60 in file lab10.s
      At line 70 in file lab10.s
      At line 90 in file lab10.s

UART0_IRQ_PRIORITY 00000003

Symbol: UART0_IRQ_PRIORITY
   Definitions
      At line 79 in file lab10.s
   Uses
      At line 81 in file lab10.s
Comment: UART0_IRQ_PRIORITY used once
UART0_IRQn 0000000C

Symbol: UART0_IRQn
   Definitions
      At line 175 in file MKL05Z4.s
   Uses
      At line 996 in file MKL05Z4.s
Comment: UART0_IRQn used once
UART0_MA1 4006A008

Symbol: UART0_MA1
   Definitions
      At line 1729 in file MKL05Z4.s
   Uses
      None
Comment: UART0_MA1 unused
UART0_MA1_MA_MASK 000000FF

Symbol: UART0_MA1_MA_MASK
   Definitions
      At line 1900 in file MKL05Z4.s
   Uses
      None
Comment: UART0_MA1_MA_MASK unused
UART0_MA1_MA_SHIFT 00000000

Symbol: UART0_MA1_MA_SHIFT
   Definitions



ARM Macro Assembler    Page 213 Alphabetic symbol ordering
Absolute symbols

      At line 1901 in file MKL05Z4.s
   Uses
      None
Comment: UART0_MA1_MA_SHIFT unused
UART0_MA1_OFFSET 00000008

Symbol: UART0_MA1_OFFSET
   Definitions
      At line 1717 in file MKL05Z4.s
   Uses
      At line 1729 in file MKL05Z4.s
Comment: UART0_MA1_OFFSET used once
UART0_MA2 4006A009

Symbol: UART0_MA2
   Definitions
      At line 1730 in file MKL05Z4.s
   Uses
      None
Comment: UART0_MA2 unused
UART0_MA2_MA_MASK 000000FF

Symbol: UART0_MA2_MA_MASK
   Definitions
      At line 1905 in file MKL05Z4.s
   Uses
      None
Comment: UART0_MA2_MA_MASK unused
UART0_MA2_MA_SHIFT 00000000

Symbol: UART0_MA2_MA_SHIFT
   Definitions
      At line 1906 in file MKL05Z4.s
   Uses
      None
Comment: UART0_MA2_MA_SHIFT unused
UART0_MA2_OFFSET 00000009

Symbol: UART0_MA2_OFFSET
   Definitions
      At line 1718 in file MKL05Z4.s
   Uses



ARM Macro Assembler    Page 214 Alphabetic symbol ordering
Absolute symbols

      At line 1730 in file MKL05Z4.s
Comment: UART0_MA2_OFFSET used once
UART0_PRI_POS 00000006

Symbol: UART0_PRI_POS
   Definitions
      At line 962 in file MKL05Z4.s
   Uses
      At line 80 in file lab10.s
      At line 81 in file lab10.s

UART0_S1 4006A004

Symbol: UART0_S1
   Definitions
      At line 1725 in file MKL05Z4.s
   Uses
      None
Comment: UART0_S1 unused
UART0_S1_CLEAR_FLAGS 0000001F

Symbol: UART0_S1_CLEAR_FLAGS
   Definitions
      At line 238 in file lab10.s
   Uses
      At line 1113 in file lab10.s
Comment: UART0_S1_CLEAR_FLAGS used once
UART0_S1_FE_MASK 00000002

Symbol: UART0_S1_FE_MASK
   Definitions
      At line 1929 in file MKL05Z4.s
   Uses
      At line 238 in file lab10.s
Comment: UART0_S1_FE_MASK used once
UART0_S1_FE_SHIFT 00000001

Symbol: UART0_S1_FE_SHIFT
   Definitions
      At line 1930 in file MKL05Z4.s
   Uses
      None



ARM Macro Assembler    Page 215 Alphabetic symbol ordering
Absolute symbols

Comment: UART0_S1_FE_SHIFT unused
UART0_S1_IDLE_MASK 00000010

Symbol: UART0_S1_IDLE_MASK
   Definitions
      At line 1923 in file MKL05Z4.s
   Uses
      At line 238 in file lab10.s
Comment: UART0_S1_IDLE_MASK used once
UART0_S1_IDLE_SHIFT 00000004

Symbol: UART0_S1_IDLE_SHIFT
   Definitions
      At line 1924 in file MKL05Z4.s
   Uses
      None
Comment: UART0_S1_IDLE_SHIFT unused
UART0_S1_NF_MASK 00000004

Symbol: UART0_S1_NF_MASK
   Definitions
      At line 1927 in file MKL05Z4.s
   Uses
      At line 238 in file lab10.s
Comment: UART0_S1_NF_MASK used once
UART0_S1_NF_SHIFT 00000002

Symbol: UART0_S1_NF_SHIFT
   Definitions
      At line 1928 in file MKL05Z4.s
   Uses
      None
Comment: UART0_S1_NF_SHIFT unused
UART0_S1_OFFSET 00000004

Symbol: UART0_S1_OFFSET
   Definitions
      At line 1713 in file MKL05Z4.s
   Uses
      At line 1725 in file MKL05Z4.s
      At line 558 in file lab10.s
      At line 595 in file lab10.s



ARM Macro Assembler    Page 216 Alphabetic symbol ordering
Absolute symbols

      At line 1114 in file lab10.s

UART0_S1_OR_MASK 00000008

Symbol: UART0_S1_OR_MASK
   Definitions
      At line 1925 in file MKL05Z4.s
   Uses
      At line 238 in file lab10.s
Comment: UART0_S1_OR_MASK used once
UART0_S1_OR_SHIFT 00000003

Symbol: UART0_S1_OR_SHIFT
   Definitions
      At line 1926 in file MKL05Z4.s
   Uses
      None
Comment: UART0_S1_OR_SHIFT unused
UART0_S1_PF_MASK 00000001

Symbol: UART0_S1_PF_MASK
   Definitions
      At line 1931 in file MKL05Z4.s
   Uses
      At line 238 in file lab10.s
Comment: UART0_S1_PF_MASK used once
UART0_S1_PF_SHIFT 00000000

Symbol: UART0_S1_PF_SHIFT
   Definitions
      At line 1932 in file MKL05Z4.s
   Uses
      None
Comment: UART0_S1_PF_SHIFT unused
UART0_S1_RDRF_MASK 00000020

Symbol: UART0_S1_RDRF_MASK
   Definitions
      At line 1921 in file MKL05Z4.s
   Uses
      None
Comment: UART0_S1_RDRF_MASK unused



ARM Macro Assembler    Page 217 Alphabetic symbol ordering
Absolute symbols

UART0_S1_RDRF_SHIFT 00000005

Symbol: UART0_S1_RDRF_SHIFT
   Definitions
      At line 1922 in file MKL05Z4.s
   Uses
      None
Comment: UART0_S1_RDRF_SHIFT unused
UART0_S1_TC_MASK 00000040

Symbol: UART0_S1_TC_MASK
   Definitions
      At line 1919 in file MKL05Z4.s
   Uses
      None
Comment: UART0_S1_TC_MASK unused
UART0_S1_TC_SHIFT 00000006

Symbol: UART0_S1_TC_SHIFT
   Definitions
      At line 1920 in file MKL05Z4.s
   Uses
      None
Comment: UART0_S1_TC_SHIFT unused
UART0_S1_TDRE_MASK 00000080

Symbol: UART0_S1_TDRE_MASK
   Definitions
      At line 1917 in file MKL05Z4.s
   Uses
      None
Comment: UART0_S1_TDRE_MASK unused
UART0_S1_TDRE_SHIFT 00000007

Symbol: UART0_S1_TDRE_SHIFT
   Definitions
      At line 1918 in file MKL05Z4.s
   Uses
      None
Comment: UART0_S1_TDRE_SHIFT unused
UART0_S2 4006A005




ARM Macro Assembler    Page 218 Alphabetic symbol ordering
Absolute symbols

Symbol: UART0_S2
   Definitions
      At line 1726 in file MKL05Z4.s
   Uses
      None
Comment: UART0_S2 unused
UART0_S2_BRK13_MASK 00000004

Symbol: UART0_S2_BRK13_MASK
   Definitions
      At line 1953 in file MKL05Z4.s
   Uses
      None
Comment: UART0_S2_BRK13_MASK unused
UART0_S2_BRK13_SHIFT 00000002

Symbol: UART0_S2_BRK13_SHIFT
   Definitions
      At line 1954 in file MKL05Z4.s
   Uses
      None
Comment: UART0_S2_BRK13_SHIFT unused
UART0_S2_LBKDE_MASK 00000002

Symbol: UART0_S2_LBKDE_MASK
   Definitions
      At line 1955 in file MKL05Z4.s
   Uses
      None
Comment: UART0_S2_LBKDE_MASK unused
UART0_S2_LBKDE_SHIFT 00000001

Symbol: UART0_S2_LBKDE_SHIFT
   Definitions
      At line 1956 in file MKL05Z4.s
   Uses
      None
Comment: UART0_S2_LBKDE_SHIFT unused
UART0_S2_LBKDIF_MASK 00000080

Symbol: UART0_S2_LBKDIF_MASK
   Definitions



ARM Macro Assembler    Page 219 Alphabetic symbol ordering
Absolute symbols

      At line 1943 in file MKL05Z4.s
   Uses
      At line 252 in file lab10.s
Comment: UART0_S2_LBKDIF_MASK used once
UART0_S2_LBKDIF_SHIFT 00000007

Symbol: UART0_S2_LBKDIF_SHIFT
   Definitions
      At line 1944 in file MKL05Z4.s
   Uses
      None
Comment: UART0_S2_LBKDIF_SHIFT unused
UART0_S2_MSBF_MASK 00000020

Symbol: UART0_S2_MSBF_MASK
   Definitions
      At line 1947 in file MKL05Z4.s
   Uses
      None
Comment: UART0_S2_MSBF_MASK unused
UART0_S2_MSBF_SHIFT 00000005

Symbol: UART0_S2_MSBF_SHIFT
   Definitions
      At line 1948 in file MKL05Z4.s
   Uses
      None
Comment: UART0_S2_MSBF_SHIFT unused
UART0_S2_NO_RXINV_BRK10_NO_LBKDETECT_CLEAR_FLAGS 000000C0

Symbol: UART0_S2_NO_RXINV_BRK10_NO_LBKDETECT_CLEAR_FLAGS
   Definitions
      At line 252 in file lab10.s
   Uses
      At line 1115 in file lab10.s
Comment: UART0_S2_NO_RXINV_BRK10_NO_LBKDETECT_CLEAR_FLAGS used once
UART0_S2_OFFSET 00000005

Symbol: UART0_S2_OFFSET
   Definitions
      At line 1714 in file MKL05Z4.s
   Uses



ARM Macro Assembler    Page 220 Alphabetic symbol ordering
Absolute symbols

      At line 1726 in file MKL05Z4.s
      At line 1116 in file lab10.s

UART0_S2_RAF_MASK 00000001

Symbol: UART0_S2_RAF_MASK
   Definitions
      At line 1957 in file MKL05Z4.s
   Uses
      None
Comment: UART0_S2_RAF_MASK unused
UART0_S2_RAF_SHIFT 00000000

Symbol: UART0_S2_RAF_SHIFT
   Definitions
      At line 1958 in file MKL05Z4.s
   Uses
      None
Comment: UART0_S2_RAF_SHIFT unused
UART0_S2_RWUID_MASK 00000008

Symbol: UART0_S2_RWUID_MASK
   Definitions
      At line 1951 in file MKL05Z4.s
   Uses
      None
Comment: UART0_S2_RWUID_MASK unused
UART0_S2_RWUID_SHIFT 00000003

Symbol: UART0_S2_RWUID_SHIFT
   Definitions
      At line 1952 in file MKL05Z4.s
   Uses
      None
Comment: UART0_S2_RWUID_SHIFT unused
UART0_S2_RXEDGIF_MASK 00000040

Symbol: UART0_S2_RXEDGIF_MASK
   Definitions
      At line 1945 in file MKL05Z4.s
   Uses
      At line 252 in file lab10.s



ARM Macro Assembler    Page 221 Alphabetic symbol ordering
Absolute symbols

Comment: UART0_S2_RXEDGIF_MASK used once
UART0_S2_RXEDGIF_SHIFT 00000006

Symbol: UART0_S2_RXEDGIF_SHIFT
   Definitions
      At line 1946 in file MKL05Z4.s
   Uses
      None
Comment: UART0_S2_RXEDGIF_SHIFT unused
UART0_S2_RXINV_MASK 00000010

Symbol: UART0_S2_RXINV_MASK
   Definitions
      At line 1949 in file MKL05Z4.s
   Uses
      None
Comment: UART0_S2_RXINV_MASK unused
UART0_S2_RXINV_SHIFT 00000004

Symbol: UART0_S2_RXINV_SHIFT
   Definitions
      At line 1950 in file MKL05Z4.s
   Uses
      None
Comment: UART0_S2_RXINV_SHIFT unused
UART0_Vector 0000001C

Symbol: UART0_Vector
   Definitions
      At line 1047 in file MKL05Z4.s
   Uses
      None
Comment: UART0_Vector unused
VECTOR_SIZE 00000004

Symbol: VECTOR_SIZE
   Definitions
      At line 50 in file MKL05Z4.s
   Uses
      None
Comment: VECTOR_SIZE unused
VECTOR_TABLE_SIZE 000000C0



ARM Macro Assembler    Page 222 Alphabetic symbol ordering
Absolute symbols


Symbol: VECTOR_TABLE_SIZE
   Definitions
      At line 49 in file MKL05Z4.s
   Uses
      None
Comment: VECTOR_TABLE_SIZE unused
WORD_SIZE 00000004

Symbol: WORD_SIZE
   Definitions
      At line 39 in file MKL05Z4.s
   Uses
      None
Comment: WORD_SIZE unused
__CM0PLUS_REV 00000000

Symbol: __CM0PLUS_REV
   Definitions
      At line 139 in file MKL05Z4.s
   Uses
      None
Comment: __CM0PLUS_REV unused
__MPU_PRESENT 00000000

Symbol: __MPU_PRESENT
   Definitions
      At line 140 in file MKL05Z4.s
   Uses
      None
Comment: __MPU_PRESENT unused
__NVIC_PRIO_BITS 00000002

Symbol: __NVIC_PRIO_BITS
   Definitions
      At line 141 in file MKL05Z4.s
   Uses
      At line 950 in file MKL05Z4.s
      At line 951 in file MKL05Z4.s
      At line 952 in file MKL05Z4.s
      At line 953 in file MKL05Z4.s
      At line 954 in file MKL05Z4.s



ARM Macro Assembler    Page 223 Alphabetic symbol ordering
Absolute symbols

      At line 955 in file MKL05Z4.s
      At line 956 in file MKL05Z4.s
      At line 957 in file MKL05Z4.s
      At line 958 in file MKL05Z4.s
      At line 959 in file MKL05Z4.s
      At line 960 in file MKL05Z4.s
      At line 961 in file MKL05Z4.s
      At line 962 in file MKL05Z4.s
      At line 963 in file MKL05Z4.s
      At line 964 in file MKL05Z4.s
      At line 965 in file MKL05Z4.s
      At line 966 in file MKL05Z4.s
      At line 967 in file MKL05Z4.s
      At line 968 in file MKL05Z4.s
      At line 969 in file MKL05Z4.s
      At line 970 in file MKL05Z4.s
      At line 971 in file MKL05Z4.s
      At line 972 in file MKL05Z4.s
      At line 973 in file MKL05Z4.s
      At line 974 in file MKL05Z4.s
      At line 975 in file MKL05Z4.s
      At line 976 in file MKL05Z4.s
      At line 977 in file MKL05Z4.s
      At line 978 in file MKL05Z4.s
      At line 979 in file MKL05Z4.s
      At line 980 in file MKL05Z4.s
      At line 981 in file MKL05Z4.s

__VTOR_PRESENT 00000001

Symbol: __VTOR_PRESENT
   Definitions
      At line 144 in file MKL05Z4.s
   Uses
      None
Comment: __VTOR_PRESENT unused
__Vectors_Size 000000C0

Symbol: __Vectors_Size
   Definitions
      At line 1468 in file lab10.s
   Uses



ARM Macro Assembler    Page 224 Alphabetic symbol ordering
Absolute symbols

      At line 1405 in file lab10.s
Comment: __Vectors_Size used once
__Vendor_SysTickConfig 00000000

Symbol: __Vendor_SysTickConfig
   Definitions
      At line 142 in file MKL05Z4.s
   Uses
      None
Comment: __Vendor_SysTickConfig unused
nFPROT0 00000000

Symbol: nFPROT0
   Definitions
      At line 270 in file MKL05Z4.s
   Uses
      At line 271 in file MKL05Z4.s
Comment: nFPROT0 used once
nFPROT1 00000000

Symbol: nFPROT1
   Definitions
      At line 283 in file MKL05Z4.s
   Uses
      At line 284 in file MKL05Z4.s
Comment: nFPROT1 used once
nFPROT2 00000000

Symbol: nFPROT2
   Definitions
      At line 296 in file MKL05Z4.s
   Uses
      At line 297 in file MKL05Z4.s
Comment: nFPROT2 used once
nFPROT3 00000000

Symbol: nFPROT3
   Definitions
      At line 309 in file MKL05Z4.s
   Uses
      At line 310 in file MKL05Z4.s
Comment: nFPROT3 used once



ARM Macro Assembler    Page 225 Alphabetic symbol ordering
Absolute symbols

1129 symbols



ARM Macro Assembler    Page 1 Alphabetic symbol ordering
External symbols

Dummy_Handler 00000000

Symbol: Dummy_Handler
   Definitions
      At line 1407 in file lab10.s
   Uses
      At line 1413 in file lab10.s
      At line 1415 in file lab10.s
      At line 1416 in file lab10.s
      At line 1417 in file lab10.s
      At line 1418 in file lab10.s
      At line 1419 in file lab10.s
      At line 1420 in file lab10.s
      At line 1421 in file lab10.s
      At line 1422 in file lab10.s
      At line 1423 in file lab10.s
      At line 1424 in file lab10.s
      At line 1425 in file lab10.s
      At line 1428 in file lab10.s
      At line 1429 in file lab10.s
      At line 1431 in file lab10.s
      At line 1433 in file lab10.s
      At line 1435 in file lab10.s
      At line 1437 in file lab10.s
      At line 1438 in file lab10.s
      At line 1440 in file lab10.s
      At line 1442 in file lab10.s
      At line 1443 in file lab10.s
      At line 1444 in file lab10.s
      At line 1445 in file lab10.s
      At line 1446 in file lab10.s
      At line 1448 in file lab10.s
      At line 1449 in file lab10.s
      At line 1450 in file lab10.s
      At line 1451 in file lab10.s
      At line 1452 in file lab10.s
      At line 1453 in file lab10.s
      At line 1454 in file lab10.s
      At line 1455 in file lab10.s
      At line 1456 in file lab10.s
      At line 1458 in file lab10.s
      At line 1459 in file lab10.s



ARM Macro Assembler    Page 2 Alphabetic symbol ordering
External symbols

      At line 1460 in file lab10.s
      At line 1461 in file lab10.s
      At line 1462 in file lab10.s
      At line 1463 in file lab10.s
      At line 1464 in file lab10.s
      At line 1465 in file lab10.s
      At line 1466 in file lab10.s

HardFault_Handler 00000000

Symbol: HardFault_Handler
   Definitions
      At line 1408 in file lab10.s
   Uses
      At line 1414 in file lab10.s
Comment: HardFault_Handler used once
Startup 00000000

Symbol: Startup
   Definitions
      At line 261 in file lab10.s
   Uses
      At line 268 in file lab10.s
Comment: Startup used once
__initial_sp 00000000

Symbol: __initial_sp
   Definitions
      At line 1406 in file lab10.s
   Uses
      At line 1411 in file lab10.s
Comment: __initial_sp used once
4 symbols
1546 symbols in table
